
C:/Users/jkcao/Desktop/ECE354/lab2/Lab2_ECE354_2017/capture_image/capture_image.axf:     file format elf32-littlearm


Disassembly of section .text:

00000000 <__cs3_interrupt_vector>:
       0:	18 f0 9f e5 18 f0 9f e5 18 f0 9f e5 18 f0 9f e5     ................
      10:	18 f0 9f e5 18 f0 9f e5 18 f0 9f e5 18 f0 9f e5     ................
      20:	40 00 00 00 ac 9c 00 00 b0 9c 00 00 b4 9c 00 00     @...............
      30:	b8 9c 00 00 a8 9c 00 00 bc 9c 00 00 c0 9c 00 00     ................

00000040 <__cs3_reset>:
      40:	ea000026 	b	e0 <__cs3_start_asm_sim>

00000044 <__cs3_start_c>:
      44:	e59f608c 	ldr	r6, [pc, #140]	; d8 <__cs3_region_zero_size_ram+0x70>
      48:	e3560000 	cmp	r6, #0
      4c:	e92d4080 	push	{r7, lr}
      50:	e2466001 	sub	r6, r6, #1
      54:	0a00001e 	beq	d4 <__cs3_region_zero_size_ram+0x6c>
      58:	e59f507c 	ldr	r5, [pc, #124]	; dc <__cs3_region_zero_size_ram+0x74>
      5c:	e3a00000 	mov	r0, #0
      60:	e3a01000 	mov	r1, #0
      64:	e515200c 	ldr	r2, [r5, #-12]
      68:	e515e010 	ldr	lr, [r5, #-16]
      6c:	e5154008 	ldr	r4, [r5, #-8]
      70:	e15e0002 	cmp	lr, r2
      74:	00822004 	addeq	r2, r2, r4
      78:	0a000009 	beq	a4 <__cs3_region_zero_size_ram+0x3c>
      7c:	e3540000 	cmp	r4, #0
      80:	0a000007 	beq	a4 <__cs3_region_zero_size_ram+0x3c>
      84:	e1a07002 	mov	r7, r2
      88:	e1a0c002 	mov	r12, r2
      8c:	e8be000c 	ldm	lr!, {r2, r3}
      90:	e8ac000c 	stmia	r12!, {r2, r3}
      94:	e067300c 	rsb	r3, r7, r12
      98:	e1540003 	cmp	r4, r3
      9c:	e1a0200c 	mov	r2, r12
      a0:	1afffff9 	bne	8c <__cs3_region_zero_size_ram+0x24>
      a4:	e515e004 	ldr	lr, [r5, #-4]
      a8:	e35e0000 	cmp	lr, #0
      ac:	11a03002 	movne	r3, r2
      b0:	0a000003 	beq	c4 <__cs3_region_zero_size_ram+0x5c>
      b4:	e8a30003 	stmia	r3!, {r0, r1}
      b8:	e062c003 	rsb	r12, r2, r3
      bc:	e15e000c 	cmp	lr, r12
      c0:	1afffffb 	bne	b4 <__cs3_region_zero_size_ram+0x4c>
      c4:	e2466001 	sub	r6, r6, #1
      c8:	e3760001 	cmn	r6, #1
      cc:	e2855014 	add	r5, r5, #20
      d0:	1affffe3 	bne	64 <__cs3_start_c+0x20>
      d4:	eb0026ab 	bl	9b88 <__cs3_premain>
      d8:	00000001 	.word	0x00000001
      dc:	0000a058 	.word	0x0000a058

000000e0 <__cs3_start_asm_sim>:
      e0:	e28f103c 	add	r1, pc, #60	; 0x3c
      e4:	e3a00016 	mov	r0, #22
      e8:	ef123456 	svc	0x00123456
      ec:	e3500000 	cmp	r0, #0
      f0:	ba000008 	blt	118 <__cs3_start_asm_sim+0x38>
      f4:	e59f2028 	ldr	r2, [pc, #40]	; 124 <__cs3_heap_start_ptr>
      f8:	e59fd01c 	ldr	sp, [pc, #28]	; 11c <__cs3_start_asm_sim+0x3c>
      fc:	e5920008 	ldr	r0, [r2, #8]
     100:	e3500000 	cmp	r0, #0
     104:	11a0d000 	movne	sp, r0
     108:	e59f1010 	ldr	r1, [pc, #16]	; 120 <__cs3_start_asm_sim+0x40>
     10c:	e5920004 	ldr	r0, [r2, #4]
     110:	e3500000 	cmp	r0, #0
     114:	15810000 	strne	r0, [r1]
     118:	eaffffc9 	b	44 <__cs3_start_c>
     11c:	3ffffff8 	.word	0x3ffffff8
     120:	0000a964 	.word	0x0000a964

00000124 <__cs3_heap_start_ptr>:
     124:	0000a9d8 	.word	0x0000a9d8

00000128 <_start>:
     128:	e51fd000 	ldr	sp, [pc, #-0]	; 130 <_start+0x8>
     12c:	eaffffc4 	b	44 <__cs3_start_c>
     130:	3ffffff8 	.word	0x3ffffff8

00000134 <deregister_tm_clones>:
     134:	e92d4008 	push	{r3, lr}
     138:	e59f002c 	ldr	r0, [pc, #44]	; 16c <deregister_tm_clones+0x38>
     13c:	e59f302c 	ldr	r3, [pc, #44]	; 170 <deregister_tm_clones+0x3c>
     140:	e0603003 	rsb	r3, r0, r3
     144:	e3530006 	cmp	r3, #6
     148:	8a000001 	bhi	154 <deregister_tm_clones+0x20>
     14c:	e8bd4008 	pop	{r3, lr}
     150:	e12fff1e 	bx	lr
     154:	e59f3018 	ldr	r3, [pc, #24]	; 174 <deregister_tm_clones+0x40>
     158:	e3530000 	cmp	r3, #0
     15c:	0afffffa 	beq	14c <deregister_tm_clones+0x18>
     160:	e1a0e00f 	mov	lr, pc
     164:	e12fff13 	bx	r3
     168:	eafffff7 	b	14c <deregister_tm_clones+0x18>
     16c:	0000a970 	.word	0x0000a970
     170:	0000a973 	.word	0x0000a973
     174:	00000000 	.word	0x00000000

00000178 <register_tm_clones>:
     178:	e92d4008 	push	{r3, lr}
     17c:	e59f0034 	ldr	r0, [pc, #52]	; 1b8 <register_tm_clones+0x40>
     180:	e59f3034 	ldr	r3, [pc, #52]	; 1bc <register_tm_clones+0x44>
     184:	e0603003 	rsb	r3, r0, r3
     188:	e1a03143 	asr	r3, r3, #2
     18c:	e0833fa3 	add	r3, r3, r3, lsr #31
     190:	e1b010c3 	asrs	r1, r3, #1
     194:	1a000001 	bne	1a0 <register_tm_clones+0x28>
     198:	e8bd4008 	pop	{r3, lr}
     19c:	e12fff1e 	bx	lr
     1a0:	e59f2018 	ldr	r2, [pc, #24]	; 1c0 <register_tm_clones+0x48>
     1a4:	e3520000 	cmp	r2, #0
     1a8:	0afffffa 	beq	198 <register_tm_clones+0x20>
     1ac:	e1a0e00f 	mov	lr, pc
     1b0:	e12fff12 	bx	r2
     1b4:	eafffff7 	b	198 <register_tm_clones+0x20>
     1b8:	0000a970 	.word	0x0000a970
     1bc:	0000a970 	.word	0x0000a970
     1c0:	00000000 	.word	0x00000000

000001c4 <__do_global_dtors_aux>:
     1c4:	e92d4010 	push	{r4, lr}
     1c8:	e59f402c 	ldr	r4, [pc, #44]	; 1fc <__do_global_dtors_aux+0x38>
     1cc:	e5d43000 	ldrb	r3, [r4]
     1d0:	e3530000 	cmp	r3, #0
     1d4:	1a000006 	bne	1f4 <__do_global_dtors_aux+0x30>
     1d8:	ebffffd5 	bl	134 <deregister_tm_clones>
     1dc:	e59f301c 	ldr	r3, [pc, #28]	; 200 <__do_global_dtors_aux+0x3c>
     1e0:	e3530000 	cmp	r3, #0
     1e4:	159f0018 	ldrne	r0, [pc, #24]	; 204 <__do_global_dtors_aux+0x40>
     1e8:	1320f000 	nopne	{0}
     1ec:	e3a03001 	mov	r3, #1
     1f0:	e5c43000 	strb	r3, [r4]
     1f4:	e8bd4010 	pop	{r4, lr}
     1f8:	e12fff1e 	bx	lr
     1fc:	0000a970 	.word	0x0000a970
     200:	00000000 	.word	0x00000000
     204:	00009d5c 	.word	0x00009d5c

00000208 <frame_dummy>:
     208:	e92d4008 	push	{r3, lr}
     20c:	e59f3034 	ldr	r3, [pc, #52]	; 248 <frame_dummy+0x40>
     210:	e3530000 	cmp	r3, #0
     214:	159f0030 	ldrne	r0, [pc, #48]	; 24c <frame_dummy+0x44>
     218:	159f1030 	ldrne	r1, [pc, #48]	; 250 <frame_dummy+0x48>
     21c:	1320f000 	nopne	{0}
     220:	e59f002c 	ldr	r0, [pc, #44]	; 254 <frame_dummy+0x4c>
     224:	e5903000 	ldr	r3, [r0]
     228:	e3530000 	cmp	r3, #0
     22c:	0a000003 	beq	240 <frame_dummy+0x38>
     230:	e59f3020 	ldr	r3, [pc, #32]	; 258 <frame_dummy+0x50>
     234:	e3530000 	cmp	r3, #0
     238:	11a0e00f 	movne	lr, pc
     23c:	112fff13 	bxne	r3
     240:	e8bd4008 	pop	{r3, lr}
     244:	eaffffcb 	b	178 <register_tm_clones>
     248:	00000000 	.word	0x00000000
     24c:	00009d5c 	.word	0x00009d5c
     250:	0000a974 	.word	0x0000a974
     254:	0000a058 	.word	0x0000a058
     258:	00000000 	.word	0x00000000

0000025c <VGA_text>:
{
	int offset;
  	volatile char * character_buffer = (char *) FPGA_CHAR_START;	// VGA character buffer

	/* assume that the text string fits on one line */
	offset = (y << 7) + x;
     25c:	e0801381 	add	r1, r0, r1, lsl #7
	while ( *(text_ptr+1))
     260:	e5d23001 	ldrb	r3, [r2, #1]
     264:	e3530000 	cmp	r3, #0
     268:	012fff1e 	bxeq	lr
     26c:	e1a03002 	mov	r3, r2
*/
/* Note: Set the switches SW1 and SW2 to high and rest of the switches to low for correct exposure timing while compiling and the loading the program in the Altera Monitor program.
*/

void VGA_text (int, int, char *);//function prototype for text
void VGA_text(int x, int y, char * text_ptr)
     270:	e0621001 	rsb	r1, r2, r1
     274:	e28114c9 	add	r1, r1, #-922746880	; 0xc9000000

	/* assume that the text string fits on one line */
	offset = (y << 7) + x;
	while ( *(text_ptr+1))
	{
		*(character_buffer + offset) = *(text_ptr);	// write to the character buffer
     278:	e5d32000 	ldrb	r2, [r3]
     27c:	e7c32001 	strb	r2, [r3, r1]
		++text_ptr;
     280:	e2833001 	add	r3, r3, #1
	int offset;
  	volatile char * character_buffer = (char *) FPGA_CHAR_START;	// VGA character buffer

	/* assume that the text string fits on one line */
	offset = (y << 7) + x;
	while ( *(text_ptr+1))
     284:	e5d32001 	ldrb	r2, [r3, #1]
     288:	e3520000 	cmp	r2, #0
     28c:	1afffff9 	bne	278 <VGA_text+0x1c>
     290:	e12fff1e 	bx	lr

00000294 <VGA_text2>:
{
	int offset;
  	volatile char * character_buffer = (char *) FPGA_CHAR_START;	// VGA character buffer

	/* assume that the text string fits on one line */
	offset = (y << 7) + x;
     294:	e0801381 	add	r1, r0, r1, lsl #7
	while ( *(text_ptr))
     298:	e5d23000 	ldrb	r3, [r2]
     29c:	e3530000 	cmp	r3, #0
     2a0:	012fff1e 	bxeq	lr
     2a4:	e1a0c002 	mov	r12, r2
		++text_ptr;
		++offset;
	}
}
void VGA_text2 (int, int, char *);//function prototype for text
void VGA_text2(int x, int y, char * text_ptr)
     2a8:	e0622001 	rsb	r2, r2, r1
     2ac:	e28224c9 	add	r2, r2, #-922746880	; 0xc9000000

	/* assume that the text string fits on one line */
	offset = (y << 7) + x;
	while ( *(text_ptr))
	{
		*(character_buffer + offset) = *(text_ptr);	// write to the character buffer
     2b0:	e7c2300c 	strb	r3, [r2, r12]
	int offset;
  	volatile char * character_buffer = (char *) FPGA_CHAR_START;	// VGA character buffer

	/* assume that the text string fits on one line */
	offset = (y << 7) + x;
	while ( *(text_ptr))
     2b4:	e5fc3001 	ldrb	r3, [r12, #1]!
     2b8:	e3530000 	cmp	r3, #0
     2bc:	1afffffb 	bne	2b0 <VGA_text2+0x1c>
     2c0:	e12fff1e 	bx	lr

000002c4 <main>:
		++text_ptr;
		++offset;
	}
}
int main(void)
{
     2c4:	e92d4ff0 	push	{r4, r5, r6, r7, r8, r9, r10, r11, lr}
     2c8:	e24dd00c 	sub	sp, sp, #12
	volatile int * KEY_ptr				= (int *) KEY_BASE;
	volatile int * Video_In_DMA_ptr	= (int *) VIDEO_IN_BASE;
	volatile short * Video_Mem_ptr	= (short *) FPGA_ONCHIP_BASE;
	int i = 0;
	int x, y;
	int c=0;
     2cc:	e3a0a000 	mov	r10, #0
	//char count = 0x30;
while (1)
	{
	
	*(Video_In_DMA_ptr + 3)	= 0x4;				// Enable the video
     2d0:	e3038fff 	movw	r8, #16383	; 0x3fff
     2d4:	e34f8f20 	movt	r8, #65312	; 0xff20
     2d8:	e3a09004 	mov	r9, #4

	while (1)
	{
		//display color image, no modifications
		if (*KEY_ptr != 0)						// check if any KEY was pressed
     2dc:	e1a0500a 	mov	r5, r10
     2e0:	e34f5f20 	movt	r5, #65312	; 0xff20
		{
			*(Video_In_DMA_ptr + 3) = 0x0;			// Disable the video to capture one frame
     2e4:	e1a0600a 	mov	r6, r10
	}
	//increment count
	c++;
	char count[2];
	char* str = &count;
	sprintf(str, "%i", c);
     2e8:	e3097d68 	movw	r7, #40296	; 0x9d68
     2ec:	e3407000 	movt	r7, #0
			short temp2 = *(Video_Mem_ptr + (y << 9) + x);
			//average RGB for greyscale
			short red = (temp2>>0x0B)&0x1F;
			short green = (temp2>>0x06)&0x1F; //remove leading 0
			short blue = temp2&0x1F;
			short average = (red+green+blue)/3;
     2f0:	e3054556 	movw	r4, #21846	; 0x5556
     2f4:	e3454555 	movt	r4, #21845	; 0x5555
	int c=0;
	//char count = 0x30;
while (1)
	{
	
	*(Video_In_DMA_ptr + 3)	= 0x4;				// Enable the video
     2f8:	e5089f93 	str	r9, [r8, #-3987]	; 0xfffff06d

	while (1)
	{
		//display color image, no modifications
		if (*KEY_ptr != 0)						// check if any KEY was pressed
     2fc:	e5953050 	ldr	r3, [r5, #80]	; 0x50
     300:	e3530000 	cmp	r3, #0
     304:	0afffffc 	beq	2fc <main+0x38>
		{
			*(Video_In_DMA_ptr + 3) = 0x0;			// Disable the video to capture one frame
     308:	e5086f93 	str	r6, [r8, #-3987]	; 0xfffff06d
			while (*KEY_ptr != 0);				// wait for pushbutton KEY release
     30c:	e5953050 	ldr	r3, [r5, #80]	; 0x50
     310:	e3530000 	cmp	r3, #0
     314:	1afffffc 	bne	30c <main+0x48>
		}
	}

	while (1)
	{
		if (*KEY_ptr != 0)						// check if any KEY was pressed
     318:	e5953050 	ldr	r3, [r5, #80]	; 0x50
     31c:	e3530000 	cmp	r3, #0
     320:	0afffffc 	beq	318 <main+0x54>
		{
			while (*KEY_ptr != 0);	
     324:	e5953050 	ldr	r3, [r5, #80]	; 0x50
     328:	e3530000 	cmp	r3, #0
     32c:	1afffffc 	bne	324 <main+0x60>
     330:	e1a0e006 	mov	lr, r6
     334:	ea000009 	b	360 <main+0x9c>
		}
	}
	//flip over horizontal axis
	for (y = 0; y < 120; y++) {
		for (x = 0; x < 320; x++) {
			short temp2 = *(Video_Mem_ptr + (y << 9) + x);
     338:	e1d310b0 	ldrh	r1, [r3]
			short temp3 = *(Video_Mem_ptr + ((239-y) << 9) + x);
     33c:	e19300b2 	ldrh	r0, [r3, r2]
			*(Video_Mem_ptr + (y << 9) + x) = temp3;
     340:	e1c300b0 	strh	r0, [r3]
			*(Video_Mem_ptr + ((239-y) << 9) + x) = temp2;
     344:	e18310b2 	strh	r1, [r3, r2]
     348:	e2833002 	add	r3, r3, #2
			break;
		}
	}
	//flip over horizontal axis
	for (y = 0; y < 120; y++) {
		for (x = 0; x < 320; x++) {
     34c:	e153000c 	cmp	r3, r12
     350:	1afffff8 	bne	338 <main+0x74>
			while (*KEY_ptr != 0);	
			break;
		}
	}
	//flip over horizontal axis
	for (y = 0; y < 120; y++) {
     354:	e28ee001 	add	lr, lr, #1
     358:	e35e0078 	cmp	lr, #120	; 0x78
     35c:	0a000009 	beq	388 <main+0xc4>
		for (x = 0; x < 320; x++) {
			short temp2 = *(Video_Mem_ptr + (y << 9) + x);
     360:	e1a0248e 	lsl	r2, lr, #9
		*(character_buffer + offset) = *(text_ptr);	// write to the character buffer
		++text_ptr;
		++offset;
	}
}
int main(void)
     364:	e1a0350e 	lsl	r3, lr, #10
     368:	e2833332 	add	r3, r3, #-939524096	; 0xc8000000
     36c:	e282c319 	add	r12, r2, #1677721600	; 0x64000000
     370:	e28ccd05 	add	r12, r12, #320	; 0x140
     374:	e1a0c08c 	lsl	r12, r12, #1
     378:	e26e10ef 	rsb	r1, lr, #239	; 0xef
     37c:	e0622481 	rsb	r2, r2, r1, lsl #9
     380:	e1a02082 	lsl	r2, r2, #1
     384:	eaffffeb 	b	338 <main+0x74>
		}
	}
	
	while(1)
	{
		if (*KEY_ptr != 0)						// check if any KEY was pressed
     388:	e5953050 	ldr	r3, [r5, #80]	; 0x50
     38c:	e3530000 	cmp	r3, #0
     390:	0afffffc 	beq	388 <main+0xc4>
		{
			while (*KEY_ptr != 0);	
     394:	e5953050 	ldr	r3, [r5, #80]	; 0x50
     398:	e3530000 	cmp	r3, #0
     39c:	1afffffc 	bne	394 <main+0xd0>
			break;
		}
	}
	//increment count
	c++;
     3a0:	e28aa001 	add	r10, r10, #1
	char count[2];
	char* str = &count;
	sprintf(str, "%i", c);
     3a4:	e1a0000d 	mov	r0, sp
     3a8:	e1a01007 	mov	r1, r7
     3ac:	e1a0200a 	mov	r2, r10
     3b0:	eb0002af 	bl	e74 <sprintf>
	
	time_t ltime;
	ltime=time(NULL)-5*60*60;
     3b4:	e1a00006 	mov	r0, r6
     3b8:	eb000aa9 	bl	2e64 <time>
     3bc:	e2400c46 	sub	r0, r0, #17920	; 0x4600
     3c0:	e2403050 	sub	r3, r0, #80	; 0x50
     3c4:	e58d3004 	str	r3, [sp, #4]
	while(1)
	{
		if (*KEY_ptr != 0)						// check if any KEY was pressed
     3c8:	e5953050 	ldr	r3, [r5, #80]	; 0x50
     3cc:	e3530000 	cmp	r3, #0
     3d0:	0afffffc 	beq	3c8 <main+0x104>
		{
			while (*KEY_ptr != 0);	
     3d4:	e5953050 	ldr	r3, [r5, #80]	; 0x50
     3d8:	e3530000 	cmp	r3, #0
     3dc:	1afffffc 	bne	3d4 <main+0x110>
			break;
		}
	}
	VGA_text (34, 29, asctime(localtime(&(ltime)))); //display timestamp
     3e0:	e28d0004 	add	r0, sp, #4
     3e4:	eb0000a6 	bl	684 <localtime>
     3e8:	eb00006b 	bl	59c <asctime>
     3ec:	e1a02000 	mov	r2, r0
     3f0:	e3a00022 	mov	r0, #34	; 0x22
     3f4:	e3a0101d 	mov	r1, #29
     3f8:	ebffff97 	bl	25c <VGA_text>
	VGA_text2 (0, 0, str); //display count;
     3fc:	e1a00006 	mov	r0, r6
     400:	e1a01006 	mov	r1, r6
     404:	e1a0200d 	mov	r2, sp
     408:	ebffffa1 	bl	294 <VGA_text2>
	
		for (y = 0; y < 240; y++) {
     40c:	e1a0e006 	mov	lr, r6
     410:	ea000012 	b	460 <main+0x19c>
		for (x = 0; x < 320; x++) {
			short temp2 = *(Video_Mem_ptr + (y << 9) + x);
     414:	e1d310b0 	ldrh	r1, [r3]
     418:	e1a00001 	mov	r0, r1
			//average RGB for greyscale
			short red = (temp2>>0x0B)&0x1F;
			short green = (temp2>>0x06)&0x1F; //remove leading 0
			short blue = temp2&0x1F;
			short average = (red+green+blue)/3;
     41c:	e7e425d0 	ubfx	r2, r0, #11, #5
     420:	e7e40350 	ubfx	r0, r0, #6, #5
     424:	e0822000 	add	r2, r2, r0
     428:	e201101f 	and	r1, r1, #31
     42c:	e0822001 	add	r2, r2, r1
     430:	e0c20294 	smull	r0, r2, r4, r2
			temp2 = (average)+(average<<0x06)+(average<<0x0b);
     434:	e6ff2072 	uxth	r2, r2
     438:	e1a01582 	lsl	r1, r2, #11
     43c:	e0811302 	add	r1, r1, r2, lsl #6
     440:	e0822001 	add	r2, r2, r1
     444:	e6ff2072 	uxth	r2, r2
			*(Video_Mem_ptr + (y << 9) + x) = temp2;
     448:	e0c320b2 	strh	r2, [r3], #2
	}
	VGA_text (34, 29, asctime(localtime(&(ltime)))); //display timestamp
	VGA_text2 (0, 0, str); //display count;
	
		for (y = 0; y < 240; y++) {
		for (x = 0; x < 320; x++) {
     44c:	e153000c 	cmp	r3, r12
     450:	1affffef 	bne	414 <main+0x150>
		}
	}
	VGA_text (34, 29, asctime(localtime(&(ltime)))); //display timestamp
	VGA_text2 (0, 0, str); //display count;
	
		for (y = 0; y < 240; y++) {
     454:	e28ee001 	add	lr, lr, #1
     458:	e35e00f0 	cmp	lr, #240	; 0xf0
     45c:	0a000006 	beq	47c <main+0x1b8>
		for (x = 0; x < 320; x++) {
			short temp2 = *(Video_Mem_ptr + (y << 9) + x);
     460:	e1a0c48e 	lsl	r12, lr, #9
		*(character_buffer + offset) = *(text_ptr);	// write to the character buffer
		++text_ptr;
		++offset;
	}
}
int main(void)
     464:	e1a0350e 	lsl	r3, lr, #10
     468:	e2833332 	add	r3, r3, #-939524096	; 0xc8000000
     46c:	e28cc319 	add	r12, r12, #1677721600	; 0x64000000
     470:	e28ccd05 	add	r12, r12, #320	; 0x140
     474:	e1a0c08c 	lsl	r12, r12, #1
     478:	eaffffe5 	b	414 <main+0x150>
			*(Video_Mem_ptr + (y << 9) + x) = temp2;
		}
		}
		while(1)
	{
		if (*KEY_ptr != 0)						// check if any KEY was pressed
     47c:	e5953050 	ldr	r3, [r5, #80]	; 0x50
     480:	e3530000 	cmp	r3, #0
     484:	0afffffc 	beq	47c <main+0x1b8>
		{
			while (*KEY_ptr != 0);	
     488:	e5953050 	ldr	r3, [r5, #80]	; 0x50
     48c:	e3530000 	cmp	r3, #0
     490:	1afffffc 	bne	488 <main+0x1c4>
     494:	e1a0e006 	mov	lr, r6
     498:	ea000008 	b	4c0 <main+0x1fc>
	}
		// flip over vertical axis
	
	for (y = 0; y < 240; y++) {
		for (x = 0; x < 160; x++) {
			short temp2 = *(Video_Mem_ptr + (y << 9) + x);
     49c:	e1d310b0 	ldrh	r1, [r3]
			short temp3 = *(Video_Mem_ptr + (y << 9) + (319-x));
     4a0:	e1d200b0 	ldrh	r0, [r2]
			*(Video_Mem_ptr + (y << 9) + x) = temp3;
     4a4:	e0c300b2 	strh	r0, [r3], #2
			*(Video_Mem_ptr + (y << 9) + (319-x)) = temp2;
     4a8:	e04210b2 	strh	r1, [r2], #-2
		}
	}
		// flip over vertical axis
	
	for (y = 0; y < 240; y++) {
		for (x = 0; x < 160; x++) {
     4ac:	e153000c 	cmp	r3, r12
     4b0:	1afffff9 	bne	49c <main+0x1d8>
			break;
		}
	}
		// flip over vertical axis
	
	for (y = 0; y < 240; y++) {
     4b4:	e28ee001 	add	lr, lr, #1
     4b8:	e35e00f0 	cmp	lr, #240	; 0xf0
     4bc:	0a000009 	beq	4e8 <main+0x224>
		for (x = 0; x < 160; x++) {
			short temp2 = *(Video_Mem_ptr + (y << 9) + x);
     4c0:	e1a0148e 	lsl	r1, lr, #9
		*(character_buffer + offset) = *(text_ptr);	// write to the character buffer
		++text_ptr;
		++offset;
	}
}
int main(void)
     4c4:	e1a0350e 	lsl	r3, lr, #10
     4c8:	e2833332 	add	r3, r3, #-939524096	; 0xc8000000
     4cc:	e1a02081 	lsl	r2, r1, #1
     4d0:	e2822f9f 	add	r2, r2, #636	; 0x27c
     4d4:	e28223b2 	add	r2, r2, #-939524094	; 0xc8000002
     4d8:	e2811319 	add	r1, r1, #1677721600	; 0x64000000
     4dc:	e281c0a0 	add	r12, r1, #160	; 0xa0
     4e0:	e1a0c08c 	lsl	r12, r12, #1
     4e4:	eaffffec 	b	49c <main+0x1d8>
			*(Video_Mem_ptr + (y << 9) + (319-x)) = temp2;
		}
	}
		while(1)
	{
		if (*KEY_ptr != 0)						// check if any KEY was pressed
     4e8:	e5953050 	ldr	r3, [r5, #80]	; 0x50
     4ec:	e3530000 	cmp	r3, #0
     4f0:	0afffffc 	beq	4e8 <main+0x224>
		{
			while (*KEY_ptr != 0);	
     4f4:	e5953050 	ldr	r3, [r5, #80]	; 0x50
     4f8:	e3530000 	cmp	r3, #0
     4fc:	1afffffc 	bne	4f4 <main+0x230>
     500:	e1a0e006 	mov	lr, r6
     504:	ea000016 	b	564 <main+0x2a0>
		}
	}
	
	for (y = 0; y < 240; y++) {
		for (x = 0; x < 320; x++) {
			short temp2 = *(Video_Mem_ptr + (y << 9) + x);
     508:	e1d310b0 	ldrh	r1, [r3]
     50c:	e1a00001 	mov	r0, r1
			//average RGB for greyscale
			short red = ~((temp2>>0x0B)&0x1F);
     510:	e7e4b5d0 	ubfx	r11, r0, #11, #5
     514:	e1e0b00b 	mvn	r11, r11
			short green = ~((temp2>>0x06)&0x1F); //remove leading 0
     518:	e7e40350 	ubfx	r0, r0, #6, #5
     51c:	e1e00000 	mvn	r0, r0
			short blue = ~(temp2&0x1F);
			short average = (red+green+blue)/3;
     520:	e080000b 	add	r0, r0, r11
		for (x = 0; x < 320; x++) {
			short temp2 = *(Video_Mem_ptr + (y << 9) + x);
			//average RGB for greyscale
			short red = ~((temp2>>0x0B)&0x1F);
			short green = ~((temp2>>0x06)&0x1F); //remove leading 0
			short blue = ~(temp2&0x1F);
     524:	e201201f 	and	r2, r1, #31
     528:	e1e02002 	mvn	r2, r2
			short average = (red+green+blue)/3;
     52c:	e0822000 	add	r2, r2, r0
     530:	e0c10294 	smull	r0, r1, r4, r2
     534:	e0412fc2 	sub	r2, r1, r2, asr #31
			temp2 = (average)+(average<<0x06)+(average<<0x0b);
     538:	e6ff2072 	uxth	r2, r2
     53c:	e1a01582 	lsl	r1, r2, #11
     540:	e0811302 	add	r1, r1, r2, lsl #6
     544:	e0822001 	add	r2, r2, r1
     548:	e6ff2072 	uxth	r2, r2
			*(Video_Mem_ptr + (y << 9) + x) = temp2;
     54c:	e0c320b2 	strh	r2, [r3], #2
			break;
		}
	}
	
	for (y = 0; y < 240; y++) {
		for (x = 0; x < 320; x++) {
     550:	e153000c 	cmp	r3, r12
     554:	1affffeb 	bne	508 <main+0x244>
			while (*KEY_ptr != 0);	
			break;
		}
	}
	
	for (y = 0; y < 240; y++) {
     558:	e28ee001 	add	lr, lr, #1
     55c:	e35e00f0 	cmp	lr, #240	; 0xf0
     560:	0a000006 	beq	580 <main+0x2bc>
		for (x = 0; x < 320; x++) {
			short temp2 = *(Video_Mem_ptr + (y << 9) + x);
     564:	e1a0c48e 	lsl	r12, lr, #9
		*(character_buffer + offset) = *(text_ptr);	// write to the character buffer
		++text_ptr;
		++offset;
	}
}
int main(void)
     568:	e1a0350e 	lsl	r3, lr, #10
     56c:	e2833332 	add	r3, r3, #-939524096	; 0xc8000000
     570:	e28cc319 	add	r12, r12, #1677721600	; 0x64000000
     574:	e28ccd05 	add	r12, r12, #320	; 0x140
     578:	e1a0c08c 	lsl	r12, r12, #1
     57c:	eaffffe1 	b	508 <main+0x244>
		}
		}
	
	while(1)
	{
		if (*KEY_ptr != 0)						// check if any KEY was pressed
     580:	e5953050 	ldr	r3, [r5, #80]	; 0x50
     584:	e3530000 	cmp	r3, #0
     588:	0afffffc 	beq	580 <main+0x2bc>
		{
			while (*KEY_ptr != 0);	
     58c:	e5953050 	ldr	r3, [r5, #80]	; 0x50
     590:	e3530000 	cmp	r3, #0
     594:	1afffffc 	bne	58c <main+0x2c8>
     598:	eaffff56 	b	2f8 <main+0x34>

0000059c <asctime>:
     59c:	e92d4008 	push	{r3, lr}
     5a0:	e59f3010 	ldr	r3, [pc, #16]	; 5b8 <asctime+0x1c>
     5a4:	e5931000 	ldr	r1, [r3]
     5a8:	e2811060 	add	r1, r1, #96	; 0x60
     5ac:	eb000002 	bl	5bc <asctime_r>
     5b0:	e8bd4008 	pop	{r3, lr}
     5b4:	e12fff1e 	bx	lr
     5b8:	0000a060 	.word	0x0000a060

000005bc <asctime_r>:
     5bc:	e92d41f0 	push	{r4, r5, r6, r7, r8, lr}
     5c0:	e5908014 	ldr	r8, [r0, #20]
     5c4:	e99040e0 	ldmib	r0, {r5, r6, r7, lr}
     5c8:	e5902018 	ldr	r2, [r0, #24]
     5cc:	e59fc054 	ldr	r12, [pc, #84]	; 628 <asctime_r+0x6c>
     5d0:	e5900000 	ldr	r0, [r0]
     5d4:	e2888e76 	add	r8, r8, #1888	; 0x760
     5d8:	e24dd018 	sub	sp, sp, #24
     5dc:	e28c3018 	add	r3, r12, #24
     5e0:	e08ee08e 	add	lr, lr, lr, lsl #1
     5e4:	e288800c 	add	r8, r8, #12
     5e8:	e0822082 	add	r2, r2, r2, lsl #1
     5ec:	e1a04001 	mov	r4, r1
     5f0:	e58d000c 	str	r0, [sp, #12]
     5f4:	e58d7000 	str	r7, [sp]
     5f8:	e58d6004 	str	r6, [sp, #4]
     5fc:	e58d5008 	str	r5, [sp, #8]
     600:	e58d8010 	str	r8, [sp, #16]
     604:	e1a00001 	mov	r0, r1
     608:	e08c2002 	add	r2, r12, r2
     60c:	e59f1018 	ldr	r1, [pc, #24]	; 62c <asctime_r+0x70>
     610:	e083300e 	add	r3, r3, lr
     614:	eb000216 	bl	e74 <sprintf>
     618:	e1a00004 	mov	r0, r4
     61c:	e28dd018 	add	sp, sp, #24
     620:	e8bd41f0 	pop	{r4, r5, r6, r7, r8, lr}
     624:	e12fff1e 	bx	lr
     628:	00009d6c 	.word	0x00009d6c
     62c:	00009da8 	.word	0x00009da8

00000630 <atexit>:
     630:	e1a01000 	mov	r1, r0
     634:	e3a00000 	mov	r0, #0
     638:	e92d4008 	push	{r3, lr}
     63c:	e1a02000 	mov	r2, r0
     640:	e1a03000 	mov	r3, r0
     644:	eb000a1b 	bl	2eb8 <__register_exitproc>
     648:	e8bd4008 	pop	{r3, lr}
     64c:	e12fff1e 	bx	lr

00000650 <exit>:
     650:	e92d4008 	push	{r3, lr}
     654:	e3a01000 	mov	r1, #0
     658:	e1a04000 	mov	r4, r0
     65c:	eb000a52 	bl	2fac <__call_exitprocs>
     660:	e59f3018 	ldr	r3, [pc, #24]	; 680 <exit+0x30>
     664:	e5930000 	ldr	r0, [r3]
     668:	e590303c 	ldr	r3, [r0, #60]	; 0x3c
     66c:	e3530000 	cmp	r3, #0
     670:	11a0e00f 	movne	lr, pc
     674:	112fff13 	bxne	r3
     678:	e1a00004 	mov	r0, r4
     67c:	eb002554 	bl	9bd4 <_exit>
     680:	00009dc8 	.word	0x00009dc8

00000684 <localtime>:
     684:	e92d4008 	push	{r3, lr}
     688:	e59f3010 	ldr	r3, [pc, #16]	; 6a0 <localtime+0x1c>
     68c:	e5931000 	ldr	r1, [r3]
     690:	e281107c 	add	r1, r1, #124	; 0x7c
     694:	eb000002 	bl	6a4 <localtime_r>
     698:	e8bd4008 	pop	{r3, lr}
     69c:	e12fff1e 	bx	lr
     6a0:	0000a060 	.word	0x0000a060

000006a4 <localtime_r>:
     6a4:	e92d4008 	push	{r3, lr}
     6a8:	e3a02000 	mov	r2, #0
     6ac:	eb000095 	bl	908 <_mktm_r>
     6b0:	e8bd4008 	pop	{r3, lr}
     6b4:	e12fff1e 	bx	lr

000006b8 <__tzcalc_limits>:
     6b8:	e92d4ff0 	push	{r4, r5, r6, r7, r8, r9, r10, r11, lr}
     6bc:	e24dd00c 	sub	sp, sp, #12
     6c0:	e1a04000 	mov	r4, r0
     6c4:	eb0010ec 	bl	4a7c <__gettzinfo>
     6c8:	e59f3228 	ldr	r3, [pc, #552]	; 8f8 <__tzcalc_limits+0x240>
     6cc:	e1540003 	cmp	r4, r3
     6d0:	e1a06000 	mov	r6, r0
     6d4:	d3a00000 	movle	r0, #0
     6d8:	da000066 	ble	878 <__tzcalc_limits+0x1c0>
     6dc:	e59f2218 	ldr	r2, [pc, #536]	; 8fc <__tzcalc_limits+0x244>
     6e0:	e2440e76 	sub	r0, r4, #1888	; 0x760
     6e4:	e0ca1492 	smull	r1, r10, r2, r4
     6e8:	e240000d 	sub	r0, r0, #13
     6ec:	e2443d19 	sub	r3, r4, #1600	; 0x640
     6f0:	e0c5b092 	smull	r11, r5, r2, r0
     6f4:	e2433001 	sub	r3, r3, #1
     6f8:	e0c81392 	smull	r1, r8, r2, r3
     6fc:	e244ce7b 	sub	r12, r4, #1968	; 0x7b0
     700:	e24c2002 	sub	r2, r12, #2
     704:	e1a07fc4 	asr	r7, r4, #31
     708:	e0821182 	add	r1, r2, r2, lsl #3
     70c:	e0822181 	add	r2, r2, r1, lsl #3
     710:	e06713ca 	rsb	r1, r7, r10, asr #7
     714:	e1a00fc0 	asr	r0, r0, #31
     718:	e06772ca 	rsb	r7, r7, r10, asr #5
     71c:	e0822102 	add	r2, r2, r2, lsl #2
     720:	e24ca001 	sub	r10, r12, #1
     724:	e0811101 	add	r1, r1, r1, lsl #2
     728:	e04052c5 	sub	r5, r0, r5, asr #5
     72c:	e0877107 	add	r7, r7, r7, lsl #2
     730:	e082a14a 	add	r10, r2, r10, asr #2
     734:	e1a03fc3 	asr	r3, r3, #31
     738:	e0811101 	add	r1, r1, r1, lsl #2
     73c:	e08aa005 	add	r10, r10, r5
     740:	e06383c8 	rsb	r8, r3, r8, asr #7
     744:	e0877107 	add	r7, r7, r7, lsl #2
     748:	e1540201 	cmp	r4, r1, lsl #4
     74c:	e5864004 	str	r4, [r6, #4]
     750:	e08aa008 	add	r10, r10, r8
     754:	e0447107 	sub	r7, r4, r7, lsl #2
     758:	13a09000 	movne	r9, #0
     75c:	03a09001 	moveq	r9, #1
     760:	e1a0c006 	mov	r12, r6
     764:	e3a05000 	mov	r5, #0
     768:	e2040003 	and	r0, r4, #3
     76c:	e5dc3008 	ldrb	r3, [r12, #8]
     770:	e353004a 	cmp	r3, #74	; 0x4a
     774:	0a000046 	beq	894 <__tzcalc_limits+0x1dc>
     778:	e3530044 	cmp	r3, #68	; 0x44
     77c:	0a000056 	beq	8dc <__tzcalc_limits+0x224>
     780:	e3500000 	cmp	r0, #0
     784:	11a03009 	movne	r3, r9
     788:	0a00003d 	beq	884 <__tzcalc_limits+0x1cc>
     78c:	e1a08083 	lsl	r8, r3, #1
     790:	e59cb00c 	ldr	r11, [r12, #12]
     794:	e0888003 	add	r8, r8, r3
     798:	e59f3160 	ldr	r3, [pc, #352]	; 900 <__tzcalc_limits+0x248>
     79c:	e35b0001 	cmp	r11, #1
     7a0:	e0838208 	add	r8, r3, r8, lsl #4
     7a4:	da00004f 	ble	8e8 <__tzcalc_limits+0x230>
     7a8:	e2484008 	sub	r4, r8, #8
     7ac:	e2482004 	sub	r2, r8, #4
     7b0:	e084410b 	add	r4, r4, r11, lsl #2
     7b4:	e1a0100a 	mov	r1, r10
     7b8:	e5b23004 	ldr	r3, [r2, #4]!
     7bc:	e1520004 	cmp	r2, r4
     7c0:	e0811003 	add	r1, r1, r3
     7c4:	1afffffb 	bne	7b8 <__tzcalc_limits+0x100>
     7c8:	e24bb001 	sub	r11, r11, #1
     7cc:	e1a0b10b 	lsl	r11, r11, #2
     7d0:	e58db004 	str	r11, [sp, #4]
     7d4:	e59fb128 	ldr	r11, [pc, #296]	; 904 <__tzcalc_limits+0x24c>
     7d8:	e2812004 	add	r2, r1, #4
     7dc:	e0c3429b 	smull	r4, r3, r11, r2
     7e0:	e1a04fc2 	asr	r4, r2, #31
     7e4:	e0833002 	add	r3, r3, r2
     7e8:	e0643143 	rsb	r3, r4, r3, asr #2
     7ec:	e0634183 	rsb	r4, r3, r3, lsl #3
     7f0:	e0642002 	rsb	r2, r4, r2
     7f4:	e59c3014 	ldr	r3, [r12, #20]
     7f8:	e59c4010 	ldr	r4, [r12, #16]
     7fc:	e59db004 	ldr	r11, [sp, #4]
     800:	e0533002 	subs	r3, r3, r2
     804:	e2444001 	sub	r4, r4, #1
     808:	42833007 	addmi	r3, r3, #7
     80c:	e0644184 	rsb	r4, r4, r4, lsl #3
     810:	e798200b 	ldr	r2, [r8, r11]
     814:	e0843003 	add	r3, r4, r3
     818:	e1530002 	cmp	r3, r2
     81c:	ba000002 	blt	82c <__tzcalc_limits+0x174>
     820:	e2433007 	sub	r3, r3, #7
     824:	e1530002 	cmp	r3, r2
     828:	aafffffc 	bge	820 <__tzcalc_limits+0x168>
     82c:	e0813003 	add	r3, r1, r3
     830:	e0833083 	add	r3, r3, r3, lsl #1
     834:	e59c4018 	ldr	r4, [r12, #24]
     838:	e0633203 	rsb	r3, r3, r3, lsl #4
     83c:	e59c2020 	ldr	r2, [r12, #32]
     840:	e0633203 	rsb	r3, r3, r3, lsl #4
     844:	e0843383 	add	r3, r4, r3, lsl #7
     848:	e2855001 	add	r5, r5, #1
     84c:	e0833002 	add	r3, r3, r2
     850:	e3550002 	cmp	r5, #2
     854:	e5ac301c 	str	r3, [r12, #28]!
     858:	1affffc3 	bne	76c <__tzcalc_limits+0xb4>
     85c:	e5963038 	ldr	r3, [r6, #56]	; 0x38
     860:	e596201c 	ldr	r2, [r6, #28]
     864:	e1520003 	cmp	r2, r3
     868:	a3a03000 	movge	r3, #0
     86c:	b3a03001 	movlt	r3, #1
     870:	e5863000 	str	r3, [r6]
     874:	e3a00001 	mov	r0, #1
     878:	e28dd00c 	add	sp, sp, #12
     87c:	e8bd4ff0 	pop	{r4, r5, r6, r7, r8, r9, r10, r11, lr}
     880:	e12fff1e 	bx	lr
     884:	e3570000 	cmp	r7, #0
     888:	01a03009 	moveq	r3, r9
     88c:	13a03001 	movne	r3, #1
     890:	eaffffbd 	b	78c <__tzcalc_limits+0xd4>
     894:	e59c2014 	ldr	r2, [r12, #20]
     898:	e3500000 	cmp	r0, #0
     89c:	e082300a 	add	r3, r2, r10
     8a0:	1a000006 	bne	8c0 <__tzcalc_limits+0x208>
     8a4:	e3570000 	cmp	r7, #0
     8a8:	0a000004 	beq	8c0 <__tzcalc_limits+0x208>
     8ac:	e352003b 	cmp	r2, #59	; 0x3b
     8b0:	d3a02000 	movle	r2, #0
     8b4:	c3a02001 	movgt	r2, #1
     8b8:	e0833002 	add	r3, r3, r2
     8bc:	eaffffdb 	b	830 <__tzcalc_limits+0x178>
     8c0:	e3590000 	cmp	r9, #0
     8c4:	01a02009 	moveq	r2, r9
     8c8:	0afffffa 	beq	8b8 <__tzcalc_limits+0x200>
     8cc:	e352003b 	cmp	r2, #59	; 0x3b
     8d0:	d3a02000 	movle	r2, #0
     8d4:	c3a02001 	movgt	r2, #1
     8d8:	eafffff6 	b	8b8 <__tzcalc_limits+0x200>
     8dc:	e59c3014 	ldr	r3, [r12, #20]
     8e0:	e08a3003 	add	r3, r10, r3
     8e4:	eaffffd1 	b	830 <__tzcalc_limits+0x178>
     8e8:	e3a04000 	mov	r4, #0
     8ec:	e1a0100a 	mov	r1, r10
     8f0:	e58d4004 	str	r4, [sp, #4]
     8f4:	eaffffb6 	b	7d4 <__tzcalc_limits+0x11c>
     8f8:	000007b1 	.word	0x000007b1
     8fc:	51eb851f 	.word	0x51eb851f
     900:	00009dd0 	.word	0x00009dd0
     904:	92492493 	.word	0x92492493

00000908 <_mktm_r>:
     908:	e92d47f0 	push	{r4, r5, r6, r7, r8, r9, r10, lr}
     90c:	e1a06001 	mov	r6, r1
     910:	e1a08000 	mov	r8, r0
     914:	e1a07002 	mov	r7, r2
     918:	eb001057 	bl	4a7c <__gettzinfo>
     91c:	e5981000 	ldr	r1, [r8]
     920:	e59f34c0 	ldr	r3, [pc, #1216]	; de8 <_mktm_r+0x4e0>
     924:	e1a0a000 	mov	r10, r0
     928:	e0c30391 	smull	r0, r3, r1, r3
     92c:	e1a02fc1 	asr	r2, r1, #31
     930:	e0833001 	add	r3, r3, r1
     934:	e0623843 	rsb	r3, r2, r3, asr #16
     938:	e0832083 	add	r2, r3, r3, lsl #1
     93c:	e0622202 	rsb	r2, r2, r2, lsl #4
     940:	e0622202 	rsb	r2, r2, r2, lsl #4
     944:	e0512382 	subs	r2, r1, r2, lsl #7
     948:	42822a15 	addmi	r2, r2, #86016	; 0x15000
     94c:	e59f4498 	ldr	r4, [pc, #1176]	; dec <_mktm_r+0x4e4>
     950:	42822d06 	addmi	r2, r2, #384	; 0x180
     954:	e0c41492 	smull	r1, r4, r2, r4
     958:	e1a01fc2 	asr	r1, r2, #31
     95c:	e0844002 	add	r4, r4, r2
     960:	e06145c4 	rsb	r4, r1, r4, asr #11
     964:	e0641204 	rsb	r1, r4, r4, lsl #4
     968:	42433001 	submi	r3, r3, #1
     96c:	e0611201 	rsb	r1, r1, r1, lsl #4
     970:	e59f0478 	ldr	r0, [pc, #1144]	; df0 <_mktm_r+0x4e8>
     974:	e0422201 	sub	r2, r2, r1, lsl #4
     978:	e59fc474 	ldr	r12, [pc, #1140]	; df4 <_mktm_r+0x4ec>
     97c:	e2831004 	add	r1, r3, #4
     980:	e0c05091 	smull	r5, r0, r1, r0
     984:	e0cc5c92 	smull	r5, r12, r2, r12
     988:	e0800001 	add	r0, r0, r1
     98c:	e1a05fc1 	asr	r5, r1, #31
     990:	e08cc002 	add	r12, r12, r2
     994:	e1a09fc2 	asr	r9, r2, #31
     998:	e0650140 	rsb	r0, r5, r0, asr #2
     99c:	e069c2cc 	rsb	r12, r9, r12, asr #5
     9a0:	e0600180 	rsb	r0, r0, r0, lsl #3
     9a4:	e0510000 	subs	r0, r1, r0
     9a8:	e06c520c 	rsb	r5, r12, r12, lsl #4
     9ac:	42800007 	addmi	r0, r0, #7
     9b0:	e0422105 	sub	r2, r2, r5, lsl #2
     9b4:	e3530000 	cmp	r3, #0
     9b8:	e5864008 	str	r4, [r6, #8]
     9bc:	e5860018 	str	r0, [r6, #24]
     9c0:	e8861004 	stm	r6, {r2, r12}
     9c4:	e59f442c 	ldr	r4, [pc, #1068]	; df8 <_mktm_r+0x4f0>
     9c8:	e59f042c 	ldr	r0, [pc, #1068]	; dfc <_mktm_r+0x4f4>
     9cc:	e59f542c 	ldr	r5, [pc, #1068]	; e00 <_mktm_r+0x4f8>
     9d0:	aa000002 	bge	9e0 <_mktm_r+0xd8>
     9d4:	ea00003f 	b	ad8 <_mktm_r+0x1d0>
     9d8:	e2844001 	add	r4, r4, #1
     9dc:	e0613003 	rsb	r3, r1, r3
     9e0:	e3140003 	tst	r4, #3
     9e4:	e1a0cfc4 	asr	r12, r4, #31
     9e8:	1a000006 	bne	a08 <_mktm_r+0x100>
     9ec:	e0c21495 	smull	r1, r2, r5, r4
     9f0:	e06c22c2 	rsb	r2, r12, r2, asr #5
     9f4:	e0822102 	add	r2, r2, r2, lsl #2
     9f8:	e0822102 	add	r2, r2, r2, lsl #2
     9fc:	e1540102 	cmp	r4, r2, lsl #2
     a00:	13a02001 	movne	r2, #1
     a04:	1a000006 	bne	a24 <_mktm_r+0x11c>
     a08:	e0c21495 	smull	r1, r2, r5, r4
     a0c:	e06cc3c2 	rsb	r12, r12, r2, asr #7
     a10:	e08cc10c 	add	r12, r12, r12, lsl #2
     a14:	e08cc10c 	add	r12, r12, r12, lsl #2
     a18:	e154020c 	cmp	r4, r12, lsl #4
     a1c:	13a02000 	movne	r2, #0
     a20:	03a02001 	moveq	r2, #1
     a24:	e0801102 	add	r1, r0, r2, lsl #2
     a28:	e5911060 	ldr	r1, [r1, #96]	; 0x60
     a2c:	e1530001 	cmp	r3, r1
     a30:	aaffffe8 	bge	9d8 <_mktm_r+0xd0>
     a34:	e1a01082 	lsl	r1, r2, #1
     a38:	e244ce76 	sub	r12, r4, #1888	; 0x760
     a3c:	e24cc00c 	sub	r12, r12, #12
     a40:	e0812002 	add	r2, r1, r2
     a44:	e3a01000 	mov	r1, #0
     a48:	e586c014 	str	r12, [r6, #20]
     a4c:	e586301c 	str	r3, [r6, #28]
     a50:	e5861010 	str	r1, [r6, #16]
     a54:	e1a02202 	lsl	r2, r2, #4
     a58:	e790c002 	ldr	r12, [r0, r2]
     a5c:	e153000c 	cmp	r3, r12
     a60:	e0809002 	add	r9, r0, r2
     a64:	ba000007 	blt	a88 <_mktm_r+0x180>
     a68:	e1a01009 	mov	r1, r9
     a6c:	e3a05001 	mov	r5, #1
     a70:	e5865010 	str	r5, [r6, #16]
     a74:	e06c3003 	rsb	r3, r12, r3
     a78:	e5b1c004 	ldr	r12, [r1, #4]!
     a7c:	e15c0003 	cmp	r12, r3
     a80:	e2855001 	add	r5, r5, #1
     a84:	dafffff9 	ble	a70 <_mktm_r+0x168>
     a88:	e2833001 	add	r3, r3, #1
     a8c:	e3570000 	cmp	r7, #0
     a90:	e586300c 	str	r3, [r6, #12]
     a94:	13a03000 	movne	r3, #0
     a98:	15863020 	strne	r3, [r6, #32]
     a9c:	0a00001d 	beq	b18 <_mktm_r+0x210>
     aa0:	e1a00006 	mov	r0, r6
     aa4:	e8bd47f0 	pop	{r4, r5, r6, r7, r8, r9, r10, lr}
     aa8:	e12fff1e 	bx	lr
     aac:	e0c21495 	smull	r1, r2, r5, r4
     ab0:	e06cc3c2 	rsb	r12, r12, r2, asr #7
     ab4:	e08cc10c 	add	r12, r12, r12, lsl #2
     ab8:	e08cc10c 	add	r12, r12, r12, lsl #2
     abc:	e154020c 	cmp	r4, r12, lsl #4
     ac0:	13a02000 	movne	r2, #0
     ac4:	03a02001 	moveq	r2, #1
     ac8:	e0801102 	add	r1, r0, r2, lsl #2
     acc:	e5911060 	ldr	r1, [r1, #96]	; 0x60
     ad0:	e0933001 	adds	r3, r3, r1
     ad4:	5affffd6 	bpl	a34 <_mktm_r+0x12c>
     ad8:	e2444001 	sub	r4, r4, #1
     adc:	e3140003 	tst	r4, #3
     ae0:	e1a0cfc4 	asr	r12, r4, #31
     ae4:	1afffff0 	bne	aac <_mktm_r+0x1a4>
     ae8:	e0c21495 	smull	r1, r2, r5, r4
     aec:	e06c22c2 	rsb	r2, r12, r2, asr #5
     af0:	e0822102 	add	r2, r2, r2, lsl #2
     af4:	e0822102 	add	r2, r2, r2, lsl #2
     af8:	e1540102 	cmp	r4, r2, lsl #2
     afc:	13a02001 	movne	r2, #1
     b00:	0affffe9 	beq	aac <_mktm_r+0x1a4>
     b04:	e0801102 	add	r1, r0, r2, lsl #2
     b08:	e5911060 	ldr	r1, [r1, #96]	; 0x60
     b0c:	e0933001 	adds	r3, r3, r1
     b10:	4afffff0 	bmi	ad8 <_mktm_r+0x1d0>
     b14:	eaffffc6 	b	a34 <_mktm_r+0x12c>
     b18:	eb0008e4 	bl	2eb0 <__tz_lock>
     b1c:	e59f32e0 	ldr	r3, [pc, #736]	; e04 <_mktm_r+0x4fc>
     b20:	e5933000 	ldr	r3, [r3]
     b24:	e3530000 	cmp	r3, #0
     b28:	1a000045 	bne	c44 <_mktm_r+0x33c>
     b2c:	e5867020 	str	r7, [r6, #32]
     b30:	e59a1020 	ldr	r1, [r10, #32]
     b34:	e59f32b0 	ldr	r3, [pc, #688]	; dec <_mktm_r+0x4e4>
     b38:	e0c32391 	smull	r2, r3, r1, r3
     b3c:	e1a02fc1 	asr	r2, r1, #31
     b40:	e0833001 	add	r3, r3, r1
     b44:	e06235c3 	rsb	r3, r2, r3, asr #11
     b48:	e1a02003 	mov	r2, r3
     b4c:	e0633203 	rsb	r3, r3, r3, lsl #4
     b50:	e0633203 	rsb	r3, r3, r3, lsl #4
     b54:	e0413203 	sub	r3, r1, r3, lsl #4
     b58:	e59f1294 	ldr	r1, [pc, #660]	; df4 <_mktm_r+0x4ec>
     b5c:	e0c15193 	smull	r5, r1, r3, r1
     b60:	e1a00fc3 	asr	r0, r3, #31
     b64:	e0811003 	add	r1, r1, r3
     b68:	e06012c1 	rsb	r1, r0, r1, asr #5
     b6c:	e596e000 	ldr	lr, [r6]
     b70:	e0614201 	rsb	r4, r1, r1, lsl #4
     b74:	e596c004 	ldr	r12, [r6, #4]
     b78:	e5960008 	ldr	r0, [r6, #8]
     b7c:	e0433104 	sub	r3, r3, r4, lsl #2
     b80:	e063300e 	rsb	r3, r3, lr
     b84:	e061100c 	rsb	r1, r1, r12
     b88:	e0622000 	rsb	r2, r2, r0
     b8c:	e353003b 	cmp	r3, #59	; 0x3b
     b90:	e5863000 	str	r3, [r6]
     b94:	e9860006 	stmib	r6, {r1, r2}
     b98:	da00005c 	ble	d10 <_mktm_r+0x408>
     b9c:	e2811001 	add	r1, r1, #1
     ba0:	e243303c 	sub	r3, r3, #60	; 0x3c
     ba4:	e5861004 	str	r1, [r6, #4]
     ba8:	e5863000 	str	r3, [r6]
     bac:	e351003b 	cmp	r1, #59	; 0x3b
     bb0:	da000038 	ble	c98 <_mktm_r+0x390>
     bb4:	e2822001 	add	r2, r2, #1
     bb8:	e241103c 	sub	r1, r1, #60	; 0x3c
     bbc:	e3520017 	cmp	r2, #23
     bc0:	e9860006 	stmib	r6, {r1, r2}
     bc4:	da000039 	ble	cb0 <_mktm_r+0x3a8>
     bc8:	e5963018 	ldr	r3, [r6, #24]
     bcc:	e2833001 	add	r3, r3, #1
     bd0:	e3530006 	cmp	r3, #6
     bd4:	c3a03000 	movgt	r3, #0
     bd8:	e596101c 	ldr	r1, [r6, #28]
     bdc:	e5863018 	str	r3, [r6, #24]
     be0:	e596300c 	ldr	r3, [r6, #12]
     be4:	e2811001 	add	r1, r1, #1
     be8:	e2422018 	sub	r2, r2, #24
     bec:	e2833001 	add	r3, r3, #1
     bf0:	e586101c 	str	r1, [r6, #28]
     bf4:	e586300c 	str	r3, [r6, #12]
     bf8:	e5862008 	str	r2, [r6, #8]
     bfc:	e5961010 	ldr	r1, [r6, #16]
     c00:	e7992101 	ldr	r2, [r9, r1, lsl #2]
     c04:	e1530002 	cmp	r3, r2
     c08:	da00000b 	ble	c3c <_mktm_r+0x334>
     c0c:	e2811001 	add	r1, r1, #1
     c10:	e0623003 	rsb	r3, r2, r3
     c14:	e351000c 	cmp	r1, #12
     c18:	e586300c 	str	r3, [r6, #12]
     c1c:	e5861010 	str	r1, [r6, #16]
     c20:	1a000005 	bne	c3c <_mktm_r+0x334>
     c24:	e5962014 	ldr	r2, [r6, #20]
     c28:	e3a03000 	mov	r3, #0
     c2c:	e2822001 	add	r2, r2, #1
     c30:	e5863010 	str	r3, [r6, #16]
     c34:	e5862014 	str	r2, [r6, #20]
     c38:	e586301c 	str	r3, [r6, #28]
     c3c:	eb00089c 	bl	2eb4 <__tz_unlock>
     c40:	eaffff96 	b	aa0 <_mktm_r+0x198>
     c44:	e59a3004 	ldr	r3, [r10, #4]
     c48:	e1530004 	cmp	r3, r4
     c4c:	0a000003 	beq	c60 <_mktm_r+0x358>
     c50:	e1a00004 	mov	r0, r4
     c54:	ebfffe97 	bl	6b8 <__tzcalc_limits>
     c58:	e3500000 	cmp	r0, #0
     c5c:	0a00003d 	beq	d58 <_mktm_r+0x450>
     c60:	e59a3000 	ldr	r3, [r10]
     c64:	e3530000 	cmp	r3, #0
     c68:	0a00002e 	beq	d28 <_mktm_r+0x420>
     c6c:	e5983000 	ldr	r3, [r8]
     c70:	e59a201c 	ldr	r2, [r10, #28]
     c74:	e1530002 	cmp	r3, r2
     c78:	ba000039 	blt	d64 <_mktm_r+0x45c>
     c7c:	e59a2038 	ldr	r2, [r10, #56]	; 0x38
     c80:	e1530002 	cmp	r3, r2
     c84:	aa000036 	bge	d64 <_mktm_r+0x45c>
     c88:	e3a03001 	mov	r3, #1
     c8c:	e5863020 	str	r3, [r6, #32]
     c90:	e59a103c 	ldr	r1, [r10, #60]	; 0x3c
     c94:	eaffffa6 	b	b34 <_mktm_r+0x22c>
     c98:	e3510000 	cmp	r1, #0
     c9c:	b2422001 	sublt	r2, r2, #1
     ca0:	b281103c 	addlt	r1, r1, #60	; 0x3c
     ca4:	b9860006 	stmiblt	r6, {r1, r2}
     ca8:	e3520017 	cmp	r2, #23
     cac:	caffffc5 	bgt	bc8 <_mktm_r+0x2c0>
     cb0:	e3520000 	cmp	r2, #0
     cb4:	aaffffe0 	bge	c3c <_mktm_r+0x334>
     cb8:	e5963018 	ldr	r3, [r6, #24]
     cbc:	e2533001 	subs	r3, r3, #1
     cc0:	43a03006 	movmi	r3, #6
     cc4:	e5863018 	str	r3, [r6, #24]
     cc8:	e596300c 	ldr	r3, [r6, #12]
     ccc:	e596101c 	ldr	r1, [r6, #28]
     cd0:	e2433001 	sub	r3, r3, #1
     cd4:	e2411001 	sub	r1, r1, #1
     cd8:	e2822018 	add	r2, r2, #24
     cdc:	e3530000 	cmp	r3, #0
     ce0:	e586101c 	str	r1, [r6, #28]
     ce4:	e586300c 	str	r3, [r6, #12]
     ce8:	e5862008 	str	r2, [r6, #8]
     cec:	1affffd2 	bne	c3c <_mktm_r+0x334>
     cf0:	e5963010 	ldr	r3, [r6, #16]
     cf4:	e2533001 	subs	r3, r3, #1
     cf8:	4a00001c 	bmi	d70 <_mktm_r+0x468>
     cfc:	e5863010 	str	r3, [r6, #16]
     d00:	e1a03103 	lsl	r3, r3, #2
     d04:	e7993003 	ldr	r3, [r9, r3]
     d08:	e586300c 	str	r3, [r6, #12]
     d0c:	eaffffca 	b	c3c <_mktm_r+0x334>
     d10:	e3530000 	cmp	r3, #0
     d14:	b2411001 	sublt	r1, r1, #1
     d18:	b283303c 	addlt	r3, r3, #60	; 0x3c
     d1c:	b5861004 	strlt	r1, [r6, #4]
     d20:	b5863000 	strlt	r3, [r6]
     d24:	eaffffa0 	b	bac <_mktm_r+0x2a4>
     d28:	e5983000 	ldr	r3, [r8]
     d2c:	e59a201c 	ldr	r2, [r10, #28]
     d30:	e1530002 	cmp	r3, r2
     d34:	aaffffd3 	bge	c88 <_mktm_r+0x380>
     d38:	e59a2038 	ldr	r2, [r10, #56]	; 0x38
     d3c:	e1530002 	cmp	r3, r2
     d40:	a3a03000 	movge	r3, #0
     d44:	b3a03001 	movlt	r3, #1
     d48:	e3530001 	cmp	r3, #1
     d4c:	e5863020 	str	r3, [r6, #32]
     d50:	0affffce 	beq	c90 <_mktm_r+0x388>
     d54:	eaffff75 	b	b30 <_mktm_r+0x228>
     d58:	e3e03000 	mvn	r3, #0
     d5c:	e5863020 	str	r3, [r6, #32]
     d60:	eaffff72 	b	b30 <_mktm_r+0x228>
     d64:	e3a03000 	mov	r3, #0
     d68:	e5863020 	str	r3, [r6, #32]
     d6c:	eaffff6f 	b	b30 <_mktm_r+0x228>
     d70:	e5963014 	ldr	r3, [r6, #20]
     d74:	e2433001 	sub	r3, r3, #1
     d78:	e3a0200b 	mov	r2, #11
     d7c:	e3130003 	tst	r3, #3
     d80:	e5862010 	str	r2, [r6, #16]
     d84:	e5863014 	str	r3, [r6, #20]
     d88:	11a02fc3 	asrne	r2, r3, #31
     d8c:	1a000008 	bne	db4 <_mktm_r+0x4ac>
     d90:	e59f1068 	ldr	r1, [pc, #104]	; e00 <_mktm_r+0x4f8>
     d94:	e0c10193 	smull	r0, r1, r3, r1
     d98:	e1a02fc3 	asr	r2, r3, #31
     d9c:	e06212c1 	rsb	r1, r2, r1, asr #5
     da0:	e0811101 	add	r1, r1, r1, lsl #2
     da4:	e0811101 	add	r1, r1, r1, lsl #2
     da8:	e1530101 	cmp	r3, r1, lsl #2
     dac:	159f3054 	ldrne	r3, [pc, #84]	; e08 <_mktm_r+0x500>
     db0:	1a000009 	bne	ddc <_mktm_r+0x4d4>
     db4:	e59f1044 	ldr	r1, [pc, #68]	; e00 <_mktm_r+0x4f8>
     db8:	e0c15193 	smull	r5, r1, r3, r1
     dbc:	e06223c1 	rsb	r2, r2, r1, asr #7
     dc0:	e0822102 	add	r2, r2, r2, lsl #2
     dc4:	e0822102 	add	r2, r2, r2, lsl #2
     dc8:	e1530202 	cmp	r3, r2, lsl #4
     dcc:	13a03000 	movne	r3, #0
     dd0:	03a03001 	moveq	r3, #1
     dd4:	e2833f5b 	add	r3, r3, #364	; 0x16c
     dd8:	e2833001 	add	r3, r3, #1
     ddc:	e586301c 	str	r3, [r6, #28]
     de0:	e3a0302c 	mov	r3, #44	; 0x2c
     de4:	eaffffc6 	b	d04 <_mktm_r+0x3fc>
     de8:	c22e4507 	.word	0xc22e4507
     dec:	91a2b3c5 	.word	0x91a2b3c5
     df0:	92492493 	.word	0x92492493
     df4:	88888889 	.word	0x88888889
     df8:	000007b2 	.word	0x000007b2
     dfc:	00009dd0 	.word	0x00009dd0
     e00:	51eb851f 	.word	0x51eb851f
     e04:	0000a990 	.word	0x0000a990
     e08:	0000016e 	.word	0x0000016e

00000e0c <_sprintf_r>:
     e0c:	e92d000c 	push	{r2, r3}
     e10:	e92d4030 	push	{r4, r5, lr}
     e14:	e24dd074 	sub	sp, sp, #116	; 0x74
     e18:	e28dc084 	add	r12, sp, #132	; 0x84
     e1c:	e3e0e102 	mvn	lr, #-2147483648	; 0x80000000
     e20:	e1a04001 	mov	r4, r1
     e24:	e59d2080 	ldr	r2, [sp, #128]	; 0x80
     e28:	e1a0300c 	mov	r3, r12
     e2c:	e58de010 	str	lr, [sp, #16]
     e30:	e58de01c 	str	lr, [sp, #28]
     e34:	e28d1008 	add	r1, sp, #8
     e38:	e3e0e000 	mvn	lr, #0
     e3c:	e3a05f82 	mov	r5, #520	; 0x208
     e40:	e1cd51b4 	strh	r5, [sp, #20]
     e44:	e58d4008 	str	r4, [sp, #8]
     e48:	e58d4018 	str	r4, [sp, #24]
     e4c:	e1cde1b6 	strh	lr, [sp, #22]
     e50:	e58dc004 	str	r12, [sp, #4]
     e54:	eb000023 	bl	ee8 <_svfprintf_r>
     e58:	e59d3008 	ldr	r3, [sp, #8]
     e5c:	e3a02000 	mov	r2, #0
     e60:	e5c32000 	strb	r2, [r3]
     e64:	e28dd074 	add	sp, sp, #116	; 0x74
     e68:	e8bd4030 	pop	{r4, r5, lr}
     e6c:	e28dd008 	add	sp, sp, #8
     e70:	e12fff1e 	bx	lr

00000e74 <sprintf>:
     e74:	e92d000e 	push	{r1, r2, r3}
     e78:	e92d4030 	push	{r4, r5, lr}
     e7c:	e59f3060 	ldr	r3, [pc, #96]	; ee4 <sprintf+0x70>
     e80:	e24dd070 	sub	sp, sp, #112	; 0x70
     e84:	e28dc080 	add	r12, sp, #128	; 0x80
     e88:	e3e0e102 	mvn	lr, #-2147483648	; 0x80000000
     e8c:	e1a04000 	mov	r4, r0
     e90:	e59d207c 	ldr	r2, [sp, #124]	; 0x7c
     e94:	e58de010 	str	lr, [sp, #16]
     e98:	e58de01c 	str	lr, [sp, #28]
     e9c:	e5930000 	ldr	r0, [r3]
     ea0:	e3e0e000 	mvn	lr, #0
     ea4:	e1a0300c 	mov	r3, r12
     ea8:	e28d1008 	add	r1, sp, #8
     eac:	e3a05f82 	mov	r5, #520	; 0x208
     eb0:	e1cd51b4 	strh	r5, [sp, #20]
     eb4:	e58d4008 	str	r4, [sp, #8]
     eb8:	e58d4018 	str	r4, [sp, #24]
     ebc:	e1cde1b6 	strh	lr, [sp, #22]
     ec0:	e58dc004 	str	r12, [sp, #4]
     ec4:	eb000007 	bl	ee8 <_svfprintf_r>
     ec8:	e59d3008 	ldr	r3, [sp, #8]
     ecc:	e3a02000 	mov	r2, #0
     ed0:	e5c32000 	strb	r2, [r3]
     ed4:	e28dd070 	add	sp, sp, #112	; 0x70
     ed8:	e8bd4030 	pop	{r4, r5, lr}
     edc:	e28dd00c 	add	sp, sp, #12
     ee0:	e12fff1e 	bx	lr
     ee4:	0000a060 	.word	0x0000a060

00000ee8 <_svfprintf_r>:
     ee8:	e92d4ff0 	push	{r4, r5, r6, r7, r8, r9, r10, r11, lr}
     eec:	e24ddf45 	sub	sp, sp, #276	; 0x114
     ef0:	e58d1030 	str	r1, [sp, #48]	; 0x30
     ef4:	e58d3048 	str	r3, [sp, #72]	; 0x48
     ef8:	e1a04002 	mov	r4, r2
     efc:	e58d0040 	str	r0, [sp, #64]	; 0x40
     f00:	eb000f07 	bl	4b24 <_localeconv_r>
     f04:	e5900000 	ldr	r0, [r0]
     f08:	e58d0058 	str	r0, [sp, #88]	; 0x58
     f0c:	eb00160a 	bl	673c <strlen>
     f10:	e59dc030 	ldr	r12, [sp, #48]	; 0x30
     f14:	e1dc30bc 	ldrh	r3, [r12, #12]
     f18:	e58d005c 	str	r0, [sp, #92]	; 0x5c
     f1c:	e3a01000 	mov	r1, #0
     f20:	e3a00000 	mov	r0, #0
     f24:	e3130080 	tst	r3, #128	; 0x80
     f28:	e58d0060 	str	r0, [sp, #96]	; 0x60
     f2c:	e58d1064 	str	r1, [sp, #100]	; 0x64
     f30:	0a000002 	beq	f40 <_svfprintf_r+0x58>
     f34:	e59c3010 	ldr	r3, [r12, #16]
     f38:	e3530000 	cmp	r3, #0
     f3c:	0a0006bb 	beq	2a30 <_svfprintf_r+0x1b48>
     f40:	e3a03000 	mov	r3, #0
     f44:	e28dc0d0 	add	r12, sp, #208	; 0xd0
     f48:	e1a0b004 	mov	r11, r4
     f4c:	e58dc01c 	str	r12, [sp, #28]
     f50:	e58d304c 	str	r3, [sp, #76]	; 0x4c
     f54:	e58dc09c 	str	r12, [sp, #156]	; 0x9c
     f58:	e58d30a4 	str	r3, [sp, #164]	; 0xa4
     f5c:	e58d30a0 	str	r3, [sp, #160]	; 0xa0
     f60:	e58d306c 	str	r3, [sp, #108]	; 0x6c
     f64:	e58d3068 	str	r3, [sp, #104]	; 0x68
     f68:	e58d302c 	str	r3, [sp, #44]	; 0x2c
     f6c:	e58db024 	str	r11, [sp, #36]	; 0x24
     f70:	e1a04003 	mov	r4, r3
     f74:	e1a0a00c 	mov	r10, r12
     f78:	e59dc024 	ldr	r12, [sp, #36]	; 0x24
     f7c:	e5dc3000 	ldrb	r3, [r12]
     f80:	e3530025 	cmp	r3, #37	; 0x25
     f84:	13530000 	cmpne	r3, #0
     f88:	0a0000a5 	beq	1224 <_svfprintf_r+0x33c>
     f8c:	e28c3001 	add	r3, r12, #1
     f90:	e1a06003 	mov	r6, r3
     f94:	e5d33000 	ldrb	r3, [r3]
     f98:	e3530025 	cmp	r3, #37	; 0x25
     f9c:	13530000 	cmpne	r3, #0
     fa0:	e2863001 	add	r3, r6, #1
     fa4:	1afffff9 	bne	f90 <_svfprintf_r+0xa8>
     fa8:	e59d4024 	ldr	r4, [sp, #36]	; 0x24
     fac:	e0567004 	subs	r7, r6, r4
     fb0:	0a00000e 	beq	ff0 <_svfprintf_r+0x108>
     fb4:	e28d40a0 	add	r4, sp, #160	; 0xa0
     fb8:	e8940030 	ldm	r4, {r4, r5}
     fbc:	e59dc024 	ldr	r12, [sp, #36]	; 0x24
     fc0:	e2844001 	add	r4, r4, #1
     fc4:	e0855007 	add	r5, r5, r7
     fc8:	e3540007 	cmp	r4, #7
     fcc:	e58ac000 	str	r12, [r10]
     fd0:	e58a7004 	str	r7, [r10, #4]
     fd4:	e58d50a4 	str	r5, [sp, #164]	; 0xa4
     fd8:	e58d40a0 	str	r4, [sp, #160]	; 0xa0
     fdc:	d28aa008 	addle	r10, r10, #8
     fe0:	ca000077 	bgt	11c4 <_svfprintf_r+0x2dc>
     fe4:	e59d402c 	ldr	r4, [sp, #44]	; 0x2c
     fe8:	e0844007 	add	r4, r4, r7
     fec:	e58d402c 	str	r4, [sp, #44]	; 0x2c
     ff0:	e5d63000 	ldrb	r3, [r6]
     ff4:	e3530000 	cmp	r3, #0
     ff8:	0a000079 	beq	11e4 <_svfprintf_r+0x2fc>
     ffc:	e286c001 	add	r12, r6, #1
    1000:	e3a03000 	mov	r3, #0
    1004:	e58dc024 	str	r12, [sp, #36]	; 0x24
    1008:	e58d3034 	str	r3, [sp, #52]	; 0x34
    100c:	e5cd307b 	strb	r3, [sp, #123]	; 0x7b
    1010:	e5d67001 	ldrb	r7, [r6, #1]
    1014:	e58d3020 	str	r3, [sp, #32]
    1018:	e3e06000 	mvn	r6, #0
    101c:	e3a01020 	mov	r1, #32
    1020:	e3a0202b 	mov	r2, #43	; 0x2b
    1024:	e1a0300c 	mov	r3, r12
    1028:	e2833001 	add	r3, r3, #1
    102c:	e2470020 	sub	r0, r7, #32
    1030:	e3500058 	cmp	r0, #88	; 0x58
    1034:	979ff100 	ldrls	pc, [pc, r0, lsl #2]
    1038:	ea00022d 	b	18f4 <_svfprintf_r+0xa0c>
    103c:	00001920 	.word	0x00001920
    1040:	000018f4 	.word	0x000018f4
    1044:	000018f4 	.word	0x000018f4
    1048:	00001938 	.word	0x00001938
    104c:	000018f4 	.word	0x000018f4
    1050:	000018f4 	.word	0x000018f4
    1054:	000018f4 	.word	0x000018f4
    1058:	000018f4 	.word	0x000018f4
    105c:	000018f4 	.word	0x000018f4
    1060:	000018f4 	.word	0x000018f4
    1064:	0000194c 	.word	0x0000194c
    1068:	0000122c 	.word	0x0000122c
    106c:	000018f4 	.word	0x000018f4
    1070:	000011b0 	.word	0x000011b0
    1074:	00001238 	.word	0x00001238
    1078:	000018f4 	.word	0x000018f4
    107c:	00001284 	.word	0x00001284
    1080:	00001298 	.word	0x00001298
    1084:	00001298 	.word	0x00001298
    1088:	00001298 	.word	0x00001298
    108c:	00001298 	.word	0x00001298
    1090:	00001298 	.word	0x00001298
    1094:	00001298 	.word	0x00001298
    1098:	00001298 	.word	0x00001298
    109c:	00001298 	.word	0x00001298
    10a0:	00001298 	.word	0x00001298
    10a4:	000018f4 	.word	0x000018f4
    10a8:	000018f4 	.word	0x000018f4
    10ac:	000018f4 	.word	0x000018f4
    10b0:	000018f4 	.word	0x000018f4
    10b4:	000018f4 	.word	0x000018f4
    10b8:	000018f4 	.word	0x000018f4
    10bc:	000018f4 	.word	0x000018f4
    10c0:	000018f4 	.word	0x000018f4
    10c4:	000018f4 	.word	0x000018f4
    10c8:	000018f4 	.word	0x000018f4
    10cc:	000012c8 	.word	0x000012c8
    10d0:	0000150c 	.word	0x0000150c
    10d4:	000018f4 	.word	0x000018f4
    10d8:	0000150c 	.word	0x0000150c
    10dc:	000018f4 	.word	0x000018f4
    10e0:	000018f4 	.word	0x000018f4
    10e4:	000018f4 	.word	0x000018f4
    10e8:	000018f4 	.word	0x000018f4
    10ec:	000015c4 	.word	0x000015c4
    10f0:	000018f4 	.word	0x000018f4
    10f4:	000018f4 	.word	0x000018f4
    10f8:	00001974 	.word	0x00001974
    10fc:	000018f4 	.word	0x000018f4
    1100:	000018f4 	.word	0x000018f4
    1104:	000018f4 	.word	0x000018f4
    1108:	000018f4 	.word	0x000018f4
    110c:	000018f4 	.word	0x000018f4
    1110:	000019c0 	.word	0x000019c0
    1114:	000018f4 	.word	0x000018f4
    1118:	000018f4 	.word	0x000018f4
    111c:	000015d8 	.word	0x000015d8
    1120:	000018f4 	.word	0x000018f4
    1124:	000018f4 	.word	0x000018f4
    1128:	000018f4 	.word	0x000018f4
    112c:	000018f4 	.word	0x000018f4
    1130:	000018f4 	.word	0x000018f4
    1134:	000018f4 	.word	0x000018f4
    1138:	000018f4 	.word	0x000018f4
    113c:	000018f4 	.word	0x000018f4
    1140:	000018f4 	.word	0x000018f4
    1144:	000018f4 	.word	0x000018f4
    1148:	00001630 	.word	0x00001630
    114c:	00001674 	.word	0x00001674
    1150:	0000150c 	.word	0x0000150c
    1154:	0000150c 	.word	0x0000150c
    1158:	0000150c 	.word	0x0000150c
    115c:	000016e0 	.word	0x000016e0
    1160:	00001674 	.word	0x00001674
    1164:	000018f4 	.word	0x000018f4
    1168:	000018f4 	.word	0x000018f4
    116c:	000016f4 	.word	0x000016f4
    1170:	000018f4 	.word	0x000018f4
    1174:	00001724 	.word	0x00001724
    1178:	00001758 	.word	0x00001758
    117c:	00001794 	.word	0x00001794
    1180:	000017e4 	.word	0x000017e4
    1184:	000018f4 	.word	0x000018f4
    1188:	000017f8 	.word	0x000017f8
    118c:	000018f4 	.word	0x000018f4
    1190:	0000186c 	.word	0x0000186c
    1194:	000018f4 	.word	0x000018f4
    1198:	000018f4 	.word	0x000018f4
    119c:	000018a8 	.word	0x000018a8
    11a0:	e59dc034 	ldr	r12, [sp, #52]	; 0x34
    11a4:	e26cc000 	rsb	r12, r12, #0
    11a8:	e58dc034 	str	r12, [sp, #52]	; 0x34
    11ac:	e58d0048 	str	r0, [sp, #72]	; 0x48
    11b0:	e59d4020 	ldr	r4, [sp, #32]
    11b4:	e3844004 	orr	r4, r4, #4
    11b8:	e58d4020 	str	r4, [sp, #32]
    11bc:	e5d37000 	ldrb	r7, [r3]
    11c0:	eaffff98 	b	1028 <_svfprintf_r+0x140>
    11c4:	e59d0040 	ldr	r0, [sp, #64]	; 0x40
    11c8:	e59d1030 	ldr	r1, [sp, #48]	; 0x30
    11cc:	e28d209c 	add	r2, sp, #156	; 0x9c
    11d0:	eb001571 	bl	679c <__ssprint_r>
    11d4:	e3500000 	cmp	r0, #0
    11d8:	1a000007 	bne	11fc <_svfprintf_r+0x314>
    11dc:	e28da0d0 	add	r10, sp, #208	; 0xd0
    11e0:	eaffff7f 	b	fe4 <_svfprintf_r+0xfc>
    11e4:	e59d30a4 	ldr	r3, [sp, #164]	; 0xa4
    11e8:	e3530000 	cmp	r3, #0
    11ec:	159d0040 	ldrne	r0, [sp, #64]	; 0x40
    11f0:	159d1030 	ldrne	r1, [sp, #48]	; 0x30
    11f4:	128d209c 	addne	r2, sp, #156	; 0x9c
    11f8:	1b001567 	blne	679c <__ssprint_r>
    11fc:	e59d4030 	ldr	r4, [sp, #48]	; 0x30
    1200:	e1d430bc 	ldrh	r3, [r4, #12]
    1204:	e59dc02c 	ldr	r12, [sp, #44]	; 0x2c
    1208:	e3130040 	tst	r3, #64	; 0x40
    120c:	13e0c000 	mvnne	r12, #0
    1210:	e58dc02c 	str	r12, [sp, #44]	; 0x2c
    1214:	e59d002c 	ldr	r0, [sp, #44]	; 0x2c
    1218:	e28ddf45 	add	sp, sp, #276	; 0x114
    121c:	e8bd4ff0 	pop	{r4, r5, r6, r7, r8, r9, r10, r11, lr}
    1220:	e12fff1e 	bx	lr
    1224:	e59d6024 	ldr	r6, [sp, #36]	; 0x24
    1228:	eaffff70 	b	ff0 <_svfprintf_r+0x108>
    122c:	e5cd207b 	strb	r2, [sp, #123]	; 0x7b
    1230:	e5d37000 	ldrb	r7, [r3]
    1234:	eaffff7b 	b	1028 <_svfprintf_r+0x140>
    1238:	e1a0c003 	mov	r12, r3
    123c:	e4dc7001 	ldrb	r7, [r12], #1
    1240:	e357002a 	cmp	r7, #42	; 0x2a
    1244:	0a0006de 	beq	2dc4 <_svfprintf_r+0x1edc>
    1248:	e2470030 	sub	r0, r7, #48	; 0x30
    124c:	e3500009 	cmp	r0, #9
    1250:	81a0300c 	movhi	r3, r12
    1254:	83a06000 	movhi	r6, #0
    1258:	8affff73 	bhi	102c <_svfprintf_r+0x144>
    125c:	e3a06000 	mov	r6, #0
    1260:	e4dc7001 	ldrb	r7, [r12], #1
    1264:	e0866106 	add	r6, r6, r6, lsl #2
    1268:	e0806086 	add	r6, r0, r6, lsl #1
    126c:	e2470030 	sub	r0, r7, #48	; 0x30
    1270:	e3500009 	cmp	r0, #9
    1274:	e1a0300c 	mov	r3, r12
    1278:	9afffff8 	bls	1260 <_svfprintf_r+0x378>
    127c:	e1866fc6 	orr	r6, r6, r6, asr #31
    1280:	eaffff69 	b	102c <_svfprintf_r+0x144>
    1284:	e59dc020 	ldr	r12, [sp, #32]
    1288:	e38cc080 	orr	r12, r12, #128	; 0x80
    128c:	e58dc020 	str	r12, [sp, #32]
    1290:	e5d37000 	ldrb	r7, [r3]
    1294:	eaffff63 	b	1028 <_svfprintf_r+0x140>
    1298:	e1a0c003 	mov	r12, r3
    129c:	e3a00000 	mov	r0, #0
    12a0:	e2473030 	sub	r3, r7, #48	; 0x30
    12a4:	e4dc7001 	ldrb	r7, [r12], #1
    12a8:	e2474030 	sub	r4, r7, #48	; 0x30
    12ac:	e0800100 	add	r0, r0, r0, lsl #2
    12b0:	e3540009 	cmp	r4, #9
    12b4:	e0830080 	add	r0, r3, r0, lsl #1
    12b8:	e1a0300c 	mov	r3, r12
    12bc:	9afffff7 	bls	12a0 <_svfprintf_r+0x3b8>
    12c0:	e58d0034 	str	r0, [sp, #52]	; 0x34
    12c4:	eaffff58 	b	102c <_svfprintf_r+0x144>
    12c8:	e59dc020 	ldr	r12, [sp, #32]
    12cc:	e38cc010 	orr	r12, r12, #16
    12d0:	e58dc020 	str	r12, [sp, #32]
    12d4:	e59d4020 	ldr	r4, [sp, #32]
    12d8:	e3140020 	tst	r4, #32
    12dc:	e58d3024 	str	r3, [sp, #36]	; 0x24
    12e0:	0a0000e7 	beq	1684 <_svfprintf_r+0x79c>
    12e4:	e59dc048 	ldr	r12, [sp, #72]	; 0x48
    12e8:	e28c1007 	add	r1, r12, #7
    12ec:	e3c11007 	bic	r1, r1, #7
    12f0:	e891000c 	ldm	r1, {r2, r3}
    12f4:	e2811008 	add	r1, r1, #8
    12f8:	e58d1048 	str	r1, [sp, #72]	; 0x48
    12fc:	e1a04002 	mov	r4, r2
    1300:	e1a05003 	mov	r5, r3
    1304:	e3520000 	cmp	r2, #0
    1308:	e2d30000 	sbcs	r0, r3, #0
    130c:	ba0000ea 	blt	16bc <_svfprintf_r+0x7d4>
    1310:	e1941005 	orrs	r1, r4, r5
    1314:	03a02000 	moveq	r2, #0
    1318:	13a02001 	movne	r2, #1
    131c:	e3a03001 	mov	r3, #1
    1320:	e3560000 	cmp	r6, #0
    1324:	a59dc020 	ldrge	r12, [sp, #32]
    1328:	a3ccc080 	bicge	r12, r12, #128	; 0x80
    132c:	a58dc020 	strge	r12, [sp, #32]
    1330:	e3560000 	cmp	r6, #0
    1334:	13822001 	orrne	r2, r2, #1
    1338:	e3520000 	cmp	r2, #0
    133c:	0a0002ac 	beq	1df4 <_svfprintf_r+0xf0c>
    1340:	e3530001 	cmp	r3, #1
    1344:	0a00039d 	beq	21c0 <_svfprintf_r+0x12d8>
    1348:	e3530002 	cmp	r3, #2
    134c:	e28dc0cf 	add	r12, sp, #207	; 0xcf
    1350:	0a000339 	beq	203c <_svfprintf_r+0x1154>
    1354:	e3a00007 	mov	r0, #7
    1358:	e1a081a4 	lsr	r8, r4, #3
    135c:	e1888e85 	orr	r8, r8, r5, lsl #29
    1360:	e0042000 	and	r2, r4, r0
    1364:	e1a031a5 	lsr	r3, r5, #3
    1368:	e1a04008 	mov	r4, r8
    136c:	e2822030 	add	r2, r2, #48	; 0x30
    1370:	e1a05003 	mov	r5, r3
    1374:	e20220ff 	and	r2, r2, #255	; 0xff
    1378:	e1943005 	orrs	r3, r4, r5
    137c:	e1a0800c 	mov	r8, r12
    1380:	e5cc2000 	strb	r2, [r12]
    1384:	e24cc001 	sub	r12, r12, #1
    1388:	1afffff2 	bne	1358 <_svfprintf_r+0x470>
    138c:	e59d4020 	ldr	r4, [sp, #32]
    1390:	e3140001 	tst	r4, #1
    1394:	e1a03008 	mov	r3, r8
    1398:	0a00038e 	beq	21d8 <_svfprintf_r+0x12f0>
    139c:	e3520030 	cmp	r2, #48	; 0x30
    13a0:	0a000334 	beq	2078 <_svfprintf_r+0x1190>
    13a4:	e59d401c 	ldr	r4, [sp, #28]
    13a8:	e3a02030 	mov	r2, #48	; 0x30
    13ac:	e06c4004 	rsb	r4, r12, r4
    13b0:	e5432001 	strb	r2, [r3, #-1]
    13b4:	e58d4038 	str	r4, [sp, #56]	; 0x38
    13b8:	e1a0800c 	mov	r8, r12
    13bc:	e59d4038 	ldr	r4, [sp, #56]	; 0x38
    13c0:	e3a0c000 	mov	r12, #0
    13c4:	e1540006 	cmp	r4, r6
    13c8:	b1a04006 	movlt	r4, r6
    13cc:	e58d4028 	str	r4, [sp, #40]	; 0x28
    13d0:	e5dd307b 	ldrb	r3, [sp, #123]	; 0x7b
    13d4:	e58d6044 	str	r6, [sp, #68]	; 0x44
    13d8:	e58dc054 	str	r12, [sp, #84]	; 0x54
    13dc:	e3530000 	cmp	r3, #0
    13e0:	0a000002 	beq	13f0 <_svfprintf_r+0x508>
    13e4:	e59d4028 	ldr	r4, [sp, #40]	; 0x28
    13e8:	e2844001 	add	r4, r4, #1
    13ec:	e58d4028 	str	r4, [sp, #40]	; 0x28
    13f0:	e59dc020 	ldr	r12, [sp, #32]
    13f4:	e21cc002 	ands	r12, r12, #2
    13f8:	159d4028 	ldrne	r4, [sp, #40]	; 0x28
    13fc:	e58dc03c 	str	r12, [sp, #60]	; 0x3c
    1400:	e59dc020 	ldr	r12, [sp, #32]
    1404:	12844002 	addne	r4, r4, #2
    1408:	158d4028 	strne	r4, [sp, #40]	; 0x28
    140c:	e21cc084 	ands	r12, r12, #132	; 0x84
    1410:	e58dc050 	str	r12, [sp, #80]	; 0x50
    1414:	1a00017d 	bne	1a10 <_svfprintf_r+0xb28>
    1418:	e59d4034 	ldr	r4, [sp, #52]	; 0x34
    141c:	e59dc028 	ldr	r12, [sp, #40]	; 0x28
    1420:	e06c6004 	rsb	r6, r12, r4
    1424:	e3560000 	cmp	r6, #0
    1428:	da000178 	ble	1a10 <_svfprintf_r+0xb28>
    142c:	e28d40a0 	add	r4, sp, #160	; 0xa0
    1430:	e3560010 	cmp	r6, #16
    1434:	e8940030 	ldm	r4, {r4, r5}
    1438:	e59f9fc8 	ldr	r9, [pc, #4040]	; 2408 <_svfprintf_r+0x1520>
    143c:	da000020 	ble	14c4 <_svfprintf_r+0x5dc>
    1440:	e58d7070 	str	r7, [sp, #112]	; 0x70
    1444:	e58d8074 	str	r8, [sp, #116]	; 0x74
    1448:	e3a0b010 	mov	r11, #16
    144c:	e1a08006 	mov	r8, r6
    1450:	e59d7030 	ldr	r7, [sp, #48]	; 0x30
    1454:	e59d6040 	ldr	r6, [sp, #64]	; 0x40
    1458:	ea000002 	b	1468 <_svfprintf_r+0x580>
    145c:	e2488010 	sub	r8, r8, #16
    1460:	e3580010 	cmp	r8, #16
    1464:	da000013 	ble	14b8 <_svfprintf_r+0x5d0>
    1468:	e2844001 	add	r4, r4, #1
    146c:	e3540007 	cmp	r4, #7
    1470:	e2855010 	add	r5, r5, #16
    1474:	e88a0a00 	stm	r10, {r9, r11}
    1478:	e58d50a4 	str	r5, [sp, #164]	; 0xa4
    147c:	e58d40a0 	str	r4, [sp, #160]	; 0xa0
    1480:	d28aa008 	addle	r10, r10, #8
    1484:	dafffff4 	ble	145c <_svfprintf_r+0x574>
    1488:	e1a00006 	mov	r0, r6
    148c:	e1a01007 	mov	r1, r7
    1490:	e28d209c 	add	r2, sp, #156	; 0x9c
    1494:	eb0014c0 	bl	679c <__ssprint_r>
    1498:	e3500000 	cmp	r0, #0
    149c:	1affff56 	bne	11fc <_svfprintf_r+0x314>
    14a0:	e2488010 	sub	r8, r8, #16
    14a4:	e28d40a0 	add	r4, sp, #160	; 0xa0
    14a8:	e3580010 	cmp	r8, #16
    14ac:	e8940030 	ldm	r4, {r4, r5}
    14b0:	e28da0d0 	add	r10, sp, #208	; 0xd0
    14b4:	caffffeb 	bgt	1468 <_svfprintf_r+0x580>
    14b8:	e1a06008 	mov	r6, r8
    14bc:	e28d7070 	add	r7, sp, #112	; 0x70
    14c0:	e8970180 	ldm	r7, {r7, r8}
    14c4:	e2844001 	add	r4, r4, #1
    14c8:	e0855006 	add	r5, r5, r6
    14cc:	e3540007 	cmp	r4, #7
    14d0:	e58a9000 	str	r9, [r10]
    14d4:	e58a6004 	str	r6, [r10, #4]
    14d8:	e58d50a4 	str	r5, [sp, #164]	; 0xa4
    14dc:	e58d40a0 	str	r4, [sp, #160]	; 0xa0
    14e0:	d28aa008 	addle	r10, r10, #8
    14e4:	da00014a 	ble	1a14 <_svfprintf_r+0xb2c>
    14e8:	e59d0040 	ldr	r0, [sp, #64]	; 0x40
    14ec:	e59d1030 	ldr	r1, [sp, #48]	; 0x30
    14f0:	e28d209c 	add	r2, sp, #156	; 0x9c
    14f4:	eb0014a8 	bl	679c <__ssprint_r>
    14f8:	e3500000 	cmp	r0, #0
    14fc:	1affff3e 	bne	11fc <_svfprintf_r+0x314>
    1500:	e59d50a4 	ldr	r5, [sp, #164]	; 0xa4
    1504:	e28da0d0 	add	r10, sp, #208	; 0xd0
    1508:	ea000141 	b	1a14 <_svfprintf_r+0xb2c>
    150c:	e59d4020 	ldr	r4, [sp, #32]
    1510:	e3140008 	tst	r4, #8
    1514:	159dc048 	ldrne	r12, [sp, #72]	; 0x48
    1518:	059d4048 	ldreq	r4, [sp, #72]	; 0x48
    151c:	e58d3024 	str	r3, [sp, #36]	; 0x24
    1520:	128c1007 	addne	r1, r12, #7
    1524:	02841007 	addeq	r1, r4, #7
    1528:	e3c11007 	bic	r1, r1, #7
    152c:	e5919000 	ldr	r9, [r1]
    1530:	e5915004 	ldr	r5, [r1, #4]
    1534:	e2811008 	add	r1, r1, #8
    1538:	e58d1048 	str	r1, [sp, #72]	; 0x48
    153c:	e1a00009 	mov	r0, r9
    1540:	e1a01005 	mov	r1, r5
    1544:	e58d0060 	str	r0, [sp, #96]	; 0x60
    1548:	e58d1064 	str	r1, [sp, #100]	; 0x64
    154c:	e1a01005 	mov	r1, r5
    1550:	e1a00009 	mov	r0, r9
    1554:	eb0013c1 	bl	6460 <__fpclassifyd>
    1558:	e3500001 	cmp	r0, #1
    155c:	e1a01005 	mov	r1, r5
    1560:	e1a00009 	mov	r0, r9
    1564:	1a000414 	bne	25bc <_svfprintf_r+0x16d4>
    1568:	e3a03000 	mov	r3, #0
    156c:	e3a02000 	mov	r2, #0
    1570:	eb001eb5 	bl	904c <__aeabi_dcmplt>
    1574:	e3a04003 	mov	r4, #3
    1578:	e58d4028 	str	r4, [sp, #40]	; 0x28
    157c:	e59d4020 	ldr	r4, [sp, #32]
    1580:	e3500000 	cmp	r0, #0
    1584:	13a0302d 	movne	r3, #45	; 0x2d
    1588:	e3a0c000 	mov	r12, #0
    158c:	e3c44080 	bic	r4, r4, #128	; 0x80
    1590:	e59f0e74 	ldr	r0, [pc, #3700]	; 240c <_svfprintf_r+0x1524>
    1594:	05dd307b 	ldrbeq	r3, [sp, #123]	; 0x7b
    1598:	15cd307b 	strbne	r3, [sp, #123]	; 0x7b
    159c:	e58dc044 	str	r12, [sp, #68]	; 0x44
    15a0:	e3570047 	cmp	r7, #71	; 0x47
    15a4:	e58d4020 	str	r4, [sp, #32]
    15a8:	e3a0c003 	mov	r12, #3
    15ac:	e3a04000 	mov	r4, #0
    15b0:	e59f8e58 	ldr	r8, [pc, #3672]	; 2410 <_svfprintf_r+0x1528>
    15b4:	e58dc038 	str	r12, [sp, #56]	; 0x38
    15b8:	d1a08000 	movle	r8, r0
    15bc:	e58d4054 	str	r4, [sp, #84]	; 0x54
    15c0:	eaffff85 	b	13dc <_svfprintf_r+0x4f4>
    15c4:	e59d4020 	ldr	r4, [sp, #32]
    15c8:	e3844008 	orr	r4, r4, #8
    15cc:	e58d4020 	str	r4, [sp, #32]
    15d0:	e5d37000 	ldrb	r7, [r3]
    15d4:	eafffe93 	b	1028 <_svfprintf_r+0x140>
    15d8:	e59d4020 	ldr	r4, [sp, #32]
    15dc:	e59fce30 	ldr	r12, [pc, #3632]	; 2414 <_svfprintf_r+0x152c>
    15e0:	e3140020 	tst	r4, #32
    15e4:	e58d3024 	str	r3, [sp, #36]	; 0x24
    15e8:	e58dc06c 	str	r12, [sp, #108]	; 0x6c
    15ec:	0a0000b3 	beq	18c0 <_svfprintf_r+0x9d8>
    15f0:	e59dc048 	ldr	r12, [sp, #72]	; 0x48
    15f4:	e28c3007 	add	r3, r12, #7
    15f8:	e3c33007 	bic	r3, r3, #7
    15fc:	e2834008 	add	r4, r3, #8
    1600:	e58d4048 	str	r4, [sp, #72]	; 0x48
    1604:	e8930030 	ldm	r3, {r4, r5}
    1608:	e59dc020 	ldr	r12, [sp, #32]
    160c:	e31c0001 	tst	r12, #1
    1610:	1a000326 	bne	22b0 <_svfprintf_r+0x13c8>
    1614:	e1940005 	orrs	r0, r4, r5
    1618:	03a02000 	moveq	r2, #0
    161c:	13a02001 	movne	r2, #1
    1620:	e3a03002 	mov	r3, #2
    1624:	e3a01000 	mov	r1, #0
    1628:	e5cd107b 	strb	r1, [sp, #123]	; 0x7b
    162c:	eaffff3b 	b	1320 <_svfprintf_r+0x438>
    1630:	e58d3024 	str	r3, [sp, #36]	; 0x24
    1634:	e59d3048 	ldr	r3, [sp, #72]	; 0x48
    1638:	e59d4048 	ldr	r4, [sp, #72]	; 0x48
    163c:	e5933000 	ldr	r3, [r3]
    1640:	e3a0c001 	mov	r12, #1
    1644:	e2844004 	add	r4, r4, #4
    1648:	e5cd30a8 	strb	r3, [sp, #168]	; 0xa8
    164c:	e3a03000 	mov	r3, #0
    1650:	e58dc028 	str	r12, [sp, #40]	; 0x28
    1654:	e58d4048 	str	r4, [sp, #72]	; 0x48
    1658:	e5cd307b 	strb	r3, [sp, #123]	; 0x7b
    165c:	e58dc038 	str	r12, [sp, #56]	; 0x38
    1660:	e28d80a8 	add	r8, sp, #168	; 0xa8
    1664:	e3a03000 	mov	r3, #0
    1668:	e58d3044 	str	r3, [sp, #68]	; 0x44
    166c:	e58d3054 	str	r3, [sp, #84]	; 0x54
    1670:	eaffff5e 	b	13f0 <_svfprintf_r+0x508>
    1674:	e59d4020 	ldr	r4, [sp, #32]
    1678:	e3140020 	tst	r4, #32
    167c:	e58d3024 	str	r3, [sp, #36]	; 0x24
    1680:	1affff17 	bne	12e4 <_svfprintf_r+0x3fc>
    1684:	e59d4020 	ldr	r4, [sp, #32]
    1688:	e3140010 	tst	r4, #16
    168c:	0a0003fb 	beq	2680 <_svfprintf_r+0x1798>
    1690:	e59dc048 	ldr	r12, [sp, #72]	; 0x48
    1694:	e59c3000 	ldr	r3, [r12]
    1698:	e1a05fc3 	asr	r5, r3, #31
    169c:	e1a02003 	mov	r2, r3
    16a0:	e1a04003 	mov	r4, r3
    16a4:	e1a03005 	mov	r3, r5
    16a8:	e28cc004 	add	r12, r12, #4
    16ac:	e3520000 	cmp	r2, #0
    16b0:	e2d30000 	sbcs	r0, r3, #0
    16b4:	e58dc048 	str	r12, [sp, #72]	; 0x48
    16b8:	aaffff14 	bge	1310 <_svfprintf_r+0x428>
    16bc:	e2744000 	rsbs	r4, r4, #0
    16c0:	e2e55000 	rsc	r5, r5, #0
    16c4:	e3a0302d 	mov	r3, #45	; 0x2d
    16c8:	e1942005 	orrs	r2, r4, r5
    16cc:	e5cd307b 	strb	r3, [sp, #123]	; 0x7b
    16d0:	03a02000 	moveq	r2, #0
    16d4:	13a02001 	movne	r2, #1
    16d8:	e3a03001 	mov	r3, #1
    16dc:	eaffff0f 	b	1320 <_svfprintf_r+0x438>
    16e0:	e59dc020 	ldr	r12, [sp, #32]
    16e4:	e38cc040 	orr	r12, r12, #64	; 0x40
    16e8:	e58dc020 	str	r12, [sp, #32]
    16ec:	e5d37000 	ldrb	r7, [r3]
    16f0:	eafffe4c 	b	1028 <_svfprintf_r+0x140>
    16f4:	e5d37000 	ldrb	r7, [r3]
    16f8:	e357006c 	cmp	r7, #108	; 0x6c
    16fc:	059d4020 	ldreq	r4, [sp, #32]
    1700:	159dc020 	ldrne	r12, [sp, #32]
    1704:	e1a00003 	mov	r0, r3
    1708:	03844020 	orreq	r4, r4, #32
    170c:	138cc010 	orrne	r12, r12, #16
    1710:	02833001 	addeq	r3, r3, #1
    1714:	058d4020 	streq	r4, [sp, #32]
    1718:	05d07001 	ldrbeq	r7, [r0, #1]
    171c:	158dc020 	strne	r12, [sp, #32]
    1720:	eafffe40 	b	1028 <_svfprintf_r+0x140>
    1724:	e59d4020 	ldr	r4, [sp, #32]
    1728:	e3140020 	tst	r4, #32
    172c:	e58d3024 	str	r3, [sp, #36]	; 0x24
    1730:	0a0003b5 	beq	260c <_svfprintf_r+0x1724>
    1734:	e59dc048 	ldr	r12, [sp, #72]	; 0x48
    1738:	e59d202c 	ldr	r2, [sp, #44]	; 0x2c
    173c:	e59c3000 	ldr	r3, [r12]
    1740:	e1a01fc2 	asr	r1, r2, #31
    1744:	e28cc004 	add	r12, r12, #4
    1748:	e5832000 	str	r2, [r3]
    174c:	e5831004 	str	r1, [r3, #4]
    1750:	e58dc048 	str	r12, [sp, #72]	; 0x48
    1754:	eafffe07 	b	f78 <_svfprintf_r+0x90>
    1758:	e59dc020 	ldr	r12, [sp, #32]
    175c:	e58d3024 	str	r3, [sp, #36]	; 0x24
    1760:	e21c3020 	ands	r3, r12, #32
    1764:	0a000089 	beq	1990 <_svfprintf_r+0xaa8>
    1768:	e59d4048 	ldr	r4, [sp, #72]	; 0x48
    176c:	e2843007 	add	r3, r4, #7
    1770:	e3c33007 	bic	r3, r3, #7
    1774:	e8930030 	ldm	r3, {r4, r5}
    1778:	e2833008 	add	r3, r3, #8
    177c:	e194c005 	orrs	r12, r4, r5
    1780:	e58d3048 	str	r3, [sp, #72]	; 0x48
    1784:	03a02000 	moveq	r2, #0
    1788:	13a02001 	movne	r2, #1
    178c:	e3a03000 	mov	r3, #0
    1790:	eaffffa3 	b	1624 <_svfprintf_r+0x73c>
    1794:	e58d3024 	str	r3, [sp, #36]	; 0x24
    1798:	e59d3048 	ldr	r3, [sp, #72]	; 0x48
    179c:	e283c004 	add	r12, r3, #4
    17a0:	e58dc048 	str	r12, [sp, #72]	; 0x48
    17a4:	e59dc020 	ldr	r12, [sp, #32]
    17a8:	e5932000 	ldr	r2, [r3]
    17ac:	e38cc002 	orr	r12, r12, #2
    17b0:	e58dc020 	str	r12, [sp, #32]
    17b4:	e3a05000 	mov	r5, #0
    17b8:	e59fcc58 	ldr	r12, [pc, #3160]	; 2418 <_svfprintf_r+0x1530>
    17bc:	e3a03030 	mov	r3, #48	; 0x30
    17c0:	e3a07078 	mov	r7, #120	; 0x78
    17c4:	e1a04002 	mov	r4, r2
    17c8:	e0522005 	subs	r2, r2, r5
    17cc:	e5cd307c 	strb	r3, [sp, #124]	; 0x7c
    17d0:	e5cd707d 	strb	r7, [sp, #125]	; 0x7d
    17d4:	13a02001 	movne	r2, #1
    17d8:	e58dc06c 	str	r12, [sp, #108]	; 0x6c
    17dc:	e3a03002 	mov	r3, #2
    17e0:	eaffff8f 	b	1624 <_svfprintf_r+0x73c>
    17e4:	e59d4020 	ldr	r4, [sp, #32]
    17e8:	e3844020 	orr	r4, r4, #32
    17ec:	e58d4020 	str	r4, [sp, #32]
    17f0:	e5d37000 	ldrb	r7, [r3]
    17f4:	eafffe0b 	b	1028 <_svfprintf_r+0x140>
    17f8:	e3a04000 	mov	r4, #0
    17fc:	e59dc048 	ldr	r12, [sp, #72]	; 0x48
    1800:	e5cd407b 	strb	r4, [sp, #123]	; 0x7b
    1804:	e59c8000 	ldr	r8, [r12]
    1808:	e1580004 	cmp	r8, r4
    180c:	e58d3024 	str	r3, [sp, #36]	; 0x24
    1810:	e28c5004 	add	r5, r12, #4
    1814:	0a0004e8 	beq	2bbc <_svfprintf_r+0x1cd4>
    1818:	e3560000 	cmp	r6, #0
    181c:	e1a00008 	mov	r0, r8
    1820:	ba0004cb 	blt	2b54 <_svfprintf_r+0x1c6c>
    1824:	e1a01004 	mov	r1, r4
    1828:	e1a02006 	mov	r2, r6
    182c:	eb000e90 	bl	5274 <memchr>
    1830:	e3500000 	cmp	r0, #0
    1834:	0a000515 	beq	2c90 <_svfprintf_r+0x1da8>
    1838:	e0680000 	rsb	r0, r8, r0
    183c:	e1500006 	cmp	r0, r6
    1840:	e58d0038 	str	r0, [sp, #56]	; 0x38
    1844:	e58d4044 	str	r4, [sp, #68]	; 0x44
    1848:	da0003dd 	ble	27c4 <_svfprintf_r+0x18dc>
    184c:	e59dc044 	ldr	r12, [sp, #68]	; 0x44
    1850:	e1c64fc6 	bic	r4, r6, r6, asr #31
    1854:	e58d4028 	str	r4, [sp, #40]	; 0x28
    1858:	e5dd307b 	ldrb	r3, [sp, #123]	; 0x7b
    185c:	e58d5048 	str	r5, [sp, #72]	; 0x48
    1860:	e58d6038 	str	r6, [sp, #56]	; 0x38
    1864:	e58dc054 	str	r12, [sp, #84]	; 0x54
    1868:	eafffedb 	b	13dc <_svfprintf_r+0x4f4>
    186c:	e59dc020 	ldr	r12, [sp, #32]
    1870:	e31c0020 	tst	r12, #32
    1874:	e58d3024 	str	r3, [sp, #36]	; 0x24
    1878:	0a000057 	beq	19dc <_svfprintf_r+0xaf4>
    187c:	e59d4048 	ldr	r4, [sp, #72]	; 0x48
    1880:	e2843007 	add	r3, r4, #7
    1884:	e3c33007 	bic	r3, r3, #7
    1888:	e8930030 	ldm	r3, {r4, r5}
    188c:	e2833008 	add	r3, r3, #8
    1890:	e194c005 	orrs	r12, r4, r5
    1894:	e58d3048 	str	r3, [sp, #72]	; 0x48
    1898:	03a02000 	moveq	r2, #0
    189c:	13a02001 	movne	r2, #1
    18a0:	e3a03001 	mov	r3, #1
    18a4:	eaffff5e 	b	1624 <_svfprintf_r+0x73c>
    18a8:	e59f4b68 	ldr	r4, [pc, #2920]	; 2418 <_svfprintf_r+0x1530>
    18ac:	e58d406c 	str	r4, [sp, #108]	; 0x6c
    18b0:	e59d4020 	ldr	r4, [sp, #32]
    18b4:	e3140020 	tst	r4, #32
    18b8:	e58d3024 	str	r3, [sp, #36]	; 0x24
    18bc:	1affff4b 	bne	15f0 <_svfprintf_r+0x708>
    18c0:	e59dc020 	ldr	r12, [sp, #32]
    18c4:	e31c0010 	tst	r12, #16
    18c8:	1a00028b 	bne	22fc <_svfprintf_r+0x1414>
    18cc:	e59d4020 	ldr	r4, [sp, #32]
    18d0:	e3140040 	tst	r4, #64	; 0x40
    18d4:	0a000288 	beq	22fc <_svfprintf_r+0x1414>
    18d8:	e59dc048 	ldr	r12, [sp, #72]	; 0x48
    18dc:	e1dc30b0 	ldrh	r3, [r12]
    18e0:	e28cc004 	add	r12, r12, #4
    18e4:	e1a04003 	mov	r4, r3
    18e8:	e3a05000 	mov	r5, #0
    18ec:	e58dc048 	str	r12, [sp, #72]	; 0x48
    18f0:	eaffff44 	b	1608 <_svfprintf_r+0x720>
    18f4:	e3570000 	cmp	r7, #0
    18f8:	e58d3024 	str	r3, [sp, #36]	; 0x24
    18fc:	0afffe38 	beq	11e4 <_svfprintf_r+0x2fc>
    1900:	e3a04001 	mov	r4, #1
    1904:	e3a03000 	mov	r3, #0
    1908:	e58d4028 	str	r4, [sp, #40]	; 0x28
    190c:	e5cd70a8 	strb	r7, [sp, #168]	; 0xa8
    1910:	e5cd307b 	strb	r3, [sp, #123]	; 0x7b
    1914:	e58d4038 	str	r4, [sp, #56]	; 0x38
    1918:	e28d80a8 	add	r8, sp, #168	; 0xa8
    191c:	eaffff50 	b	1664 <_svfprintf_r+0x77c>
    1920:	e5dd007b 	ldrb	r0, [sp, #123]	; 0x7b
    1924:	e3500000 	cmp	r0, #0
    1928:	1a000335 	bne	2604 <_svfprintf_r+0x171c>
    192c:	e5cd107b 	strb	r1, [sp, #123]	; 0x7b
    1930:	e5d37000 	ldrb	r7, [r3]
    1934:	eafffdbb 	b	1028 <_svfprintf_r+0x140>
    1938:	e59d4020 	ldr	r4, [sp, #32]
    193c:	e3844001 	orr	r4, r4, #1
    1940:	e58d4020 	str	r4, [sp, #32]
    1944:	e5d37000 	ldrb	r7, [r3]
    1948:	eafffdb6 	b	1028 <_svfprintf_r+0x140>
    194c:	e59dc048 	ldr	r12, [sp, #72]	; 0x48
    1950:	e59cc000 	ldr	r12, [r12]
    1954:	e59d4048 	ldr	r4, [sp, #72]	; 0x48
    1958:	e35c0000 	cmp	r12, #0
    195c:	e58dc034 	str	r12, [sp, #52]	; 0x34
    1960:	e2840004 	add	r0, r4, #4
    1964:	bafffe0d 	blt	11a0 <_svfprintf_r+0x2b8>
    1968:	e5d37000 	ldrb	r7, [r3]
    196c:	e58d0048 	str	r0, [sp, #72]	; 0x48
    1970:	eafffdac 	b	1028 <_svfprintf_r+0x140>
    1974:	e59d4020 	ldr	r4, [sp, #32]
    1978:	e3844010 	orr	r4, r4, #16
    197c:	e58d4020 	str	r4, [sp, #32]
    1980:	e59dc020 	ldr	r12, [sp, #32]
    1984:	e58d3024 	str	r3, [sp, #36]	; 0x24
    1988:	e21c3020 	ands	r3, r12, #32
    198c:	1affff75 	bne	1768 <_svfprintf_r+0x880>
    1990:	e59d4020 	ldr	r4, [sp, #32]
    1994:	e2141010 	ands	r1, r4, #16
    1998:	0a00032b 	beq	264c <_svfprintf_r+0x1764>
    199c:	e59dc048 	ldr	r12, [sp, #72]	; 0x48
    19a0:	e59c2000 	ldr	r2, [r12]
    19a4:	e3a05000 	mov	r5, #0
    19a8:	e1a04002 	mov	r4, r2
    19ac:	e28cc004 	add	r12, r12, #4
    19b0:	e0522005 	subs	r2, r2, r5
    19b4:	13a02001 	movne	r2, #1
    19b8:	e58dc048 	str	r12, [sp, #72]	; 0x48
    19bc:	eaffff18 	b	1624 <_svfprintf_r+0x73c>
    19c0:	e59d4020 	ldr	r4, [sp, #32]
    19c4:	e3844010 	orr	r4, r4, #16
    19c8:	e58d4020 	str	r4, [sp, #32]
    19cc:	e59dc020 	ldr	r12, [sp, #32]
    19d0:	e31c0020 	tst	r12, #32
    19d4:	e58d3024 	str	r3, [sp, #36]	; 0x24
    19d8:	1affffa7 	bne	187c <_svfprintf_r+0x994>
    19dc:	e59d4020 	ldr	r4, [sp, #32]
    19e0:	e3140010 	tst	r4, #16
    19e4:	0a000312 	beq	2634 <_svfprintf_r+0x174c>
    19e8:	e59dc048 	ldr	r12, [sp, #72]	; 0x48
    19ec:	e59c2000 	ldr	r2, [r12]
    19f0:	e3a05000 	mov	r5, #0
    19f4:	e1a04002 	mov	r4, r2
    19f8:	e28cc004 	add	r12, r12, #4
    19fc:	e0522005 	subs	r2, r2, r5
    1a00:	13a02001 	movne	r2, #1
    1a04:	e58dc048 	str	r12, [sp, #72]	; 0x48
    1a08:	e3a03001 	mov	r3, #1
    1a0c:	eaffff04 	b	1624 <_svfprintf_r+0x73c>
    1a10:	e59d50a4 	ldr	r5, [sp, #164]	; 0xa4
    1a14:	e5dd307b 	ldrb	r3, [sp, #123]	; 0x7b
    1a18:	e3530000 	cmp	r3, #0
    1a1c:	0a00000b 	beq	1a50 <_svfprintf_r+0xb68>
    1a20:	e59d40a0 	ldr	r4, [sp, #160]	; 0xa0
    1a24:	e28d307b 	add	r3, sp, #123	; 0x7b
    1a28:	e2844001 	add	r4, r4, #1
    1a2c:	e58a3000 	str	r3, [r10]
    1a30:	e2855001 	add	r5, r5, #1
    1a34:	e3540007 	cmp	r4, #7
    1a38:	e3a03001 	mov	r3, #1
    1a3c:	e58a3004 	str	r3, [r10, #4]
    1a40:	e58d50a4 	str	r5, [sp, #164]	; 0xa4
    1a44:	e58d40a0 	str	r4, [sp, #160]	; 0xa0
    1a48:	d28aa008 	addle	r10, r10, #8
    1a4c:	ca00018d 	bgt	2088 <_svfprintf_r+0x11a0>
    1a50:	e59d303c 	ldr	r3, [sp, #60]	; 0x3c
    1a54:	e3530000 	cmp	r3, #0
    1a58:	0a00000b 	beq	1a8c <_svfprintf_r+0xba4>
    1a5c:	e59d40a0 	ldr	r4, [sp, #160]	; 0xa0
    1a60:	e28d307c 	add	r3, sp, #124	; 0x7c
    1a64:	e2844001 	add	r4, r4, #1
    1a68:	e58a3000 	str	r3, [r10]
    1a6c:	e2855002 	add	r5, r5, #2
    1a70:	e3540007 	cmp	r4, #7
    1a74:	e3a03002 	mov	r3, #2
    1a78:	e58a3004 	str	r3, [r10, #4]
    1a7c:	e58d50a4 	str	r5, [sp, #164]	; 0xa4
    1a80:	e58d40a0 	str	r4, [sp, #160]	; 0xa0
    1a84:	d28aa008 	addle	r10, r10, #8
    1a88:	ca000187 	bgt	20ac <_svfprintf_r+0x11c4>
    1a8c:	e59d4050 	ldr	r4, [sp, #80]	; 0x50
    1a90:	e3540080 	cmp	r4, #128	; 0x80
    1a94:	0a0000e5 	beq	1e30 <_svfprintf_r+0xf48>
    1a98:	e59dc044 	ldr	r12, [sp, #68]	; 0x44
    1a9c:	e59d3038 	ldr	r3, [sp, #56]	; 0x38
    1aa0:	e063900c 	rsb	r9, r3, r12
    1aa4:	e3590000 	cmp	r9, #0
    1aa8:	da000036 	ble	1b88 <_svfprintf_r+0xca0>
    1aac:	e3590010 	cmp	r9, #16
    1ab0:	e59d40a0 	ldr	r4, [sp, #160]	; 0xa0
    1ab4:	e59f696c 	ldr	r6, [pc, #2412]	; 2428 <_svfprintf_r+0x1540>
    1ab8:	da000022 	ble	1b48 <_svfprintf_r+0xc60>
    1abc:	e58d7044 	str	r7, [sp, #68]	; 0x44
    1ac0:	e58d803c 	str	r8, [sp, #60]	; 0x3c
    1ac4:	e3a0b010 	mov	r11, #16
    1ac8:	e1a08009 	mov	r8, r9
    1acc:	e59d7030 	ldr	r7, [sp, #48]	; 0x30
    1ad0:	e1a09006 	mov	r9, r6
    1ad4:	e59d6040 	ldr	r6, [sp, #64]	; 0x40
    1ad8:	ea000002 	b	1ae8 <_svfprintf_r+0xc00>
    1adc:	e2488010 	sub	r8, r8, #16
    1ae0:	e3580010 	cmp	r8, #16
    1ae4:	da000013 	ble	1b38 <_svfprintf_r+0xc50>
    1ae8:	e2844001 	add	r4, r4, #1
    1aec:	e3540007 	cmp	r4, #7
    1af0:	e2855010 	add	r5, r5, #16
    1af4:	e88a0a00 	stm	r10, {r9, r11}
    1af8:	e58d50a4 	str	r5, [sp, #164]	; 0xa4
    1afc:	e58d40a0 	str	r4, [sp, #160]	; 0xa0
    1b00:	d28aa008 	addle	r10, r10, #8
    1b04:	dafffff4 	ble	1adc <_svfprintf_r+0xbf4>
    1b08:	e1a00006 	mov	r0, r6
    1b0c:	e1a01007 	mov	r1, r7
    1b10:	e28d209c 	add	r2, sp, #156	; 0x9c
    1b14:	eb001320 	bl	679c <__ssprint_r>
    1b18:	e3500000 	cmp	r0, #0
    1b1c:	1afffdb6 	bne	11fc <_svfprintf_r+0x314>
    1b20:	e2488010 	sub	r8, r8, #16
    1b24:	e28d40a0 	add	r4, sp, #160	; 0xa0
    1b28:	e3580010 	cmp	r8, #16
    1b2c:	e8940030 	ldm	r4, {r4, r5}
    1b30:	e28da0d0 	add	r10, sp, #208	; 0xd0
    1b34:	caffffeb 	bgt	1ae8 <_svfprintf_r+0xc00>
    1b38:	e1a06009 	mov	r6, r9
    1b3c:	e59d7044 	ldr	r7, [sp, #68]	; 0x44
    1b40:	e1a09008 	mov	r9, r8
    1b44:	e59d803c 	ldr	r8, [sp, #60]	; 0x3c
    1b48:	e2844001 	add	r4, r4, #1
    1b4c:	e0855009 	add	r5, r5, r9
    1b50:	e3540007 	cmp	r4, #7
    1b54:	e88a0240 	stm	r10, {r6, r9}
    1b58:	e58d50a4 	str	r5, [sp, #164]	; 0xa4
    1b5c:	e58d40a0 	str	r4, [sp, #160]	; 0xa0
    1b60:	d28aa008 	addle	r10, r10, #8
    1b64:	da000007 	ble	1b88 <_svfprintf_r+0xca0>
    1b68:	e59d0040 	ldr	r0, [sp, #64]	; 0x40
    1b6c:	e59d1030 	ldr	r1, [sp, #48]	; 0x30
    1b70:	e28d209c 	add	r2, sp, #156	; 0x9c
    1b74:	eb001308 	bl	679c <__ssprint_r>
    1b78:	e3500000 	cmp	r0, #0
    1b7c:	1afffd9e 	bne	11fc <_svfprintf_r+0x314>
    1b80:	e59d50a4 	ldr	r5, [sp, #164]	; 0xa4
    1b84:	e28da0d0 	add	r10, sp, #208	; 0xd0
    1b88:	e59d4020 	ldr	r4, [sp, #32]
    1b8c:	e3140c01 	tst	r4, #256	; 0x100
    1b90:	1a00004d 	bne	1ccc <_svfprintf_r+0xde4>
    1b94:	e59d40a0 	ldr	r4, [sp, #160]	; 0xa0
    1b98:	e59dc038 	ldr	r12, [sp, #56]	; 0x38
    1b9c:	e2844001 	add	r4, r4, #1
    1ba0:	e085500c 	add	r5, r5, r12
    1ba4:	e3540007 	cmp	r4, #7
    1ba8:	e88a1100 	stm	r10, {r8, r12}
    1bac:	e58d50a4 	str	r5, [sp, #164]	; 0xa4
    1bb0:	e58d40a0 	str	r4, [sp, #160]	; 0xa0
    1bb4:	ca000110 	bgt	1ffc <_svfprintf_r+0x1114>
    1bb8:	e28aa008 	add	r10, r10, #8
    1bbc:	e59d4020 	ldr	r4, [sp, #32]
    1bc0:	e3140004 	tst	r4, #4
    1bc4:	0a000033 	beq	1c98 <_svfprintf_r+0xdb0>
    1bc8:	e59dc034 	ldr	r12, [sp, #52]	; 0x34
    1bcc:	e59d4028 	ldr	r4, [sp, #40]	; 0x28
    1bd0:	e064600c 	rsb	r6, r4, r12
    1bd4:	e3560000 	cmp	r6, #0
    1bd8:	da00002e 	ble	1c98 <_svfprintf_r+0xdb0>
    1bdc:	e3560010 	cmp	r6, #16
    1be0:	e59d40a0 	ldr	r4, [sp, #160]	; 0xa0
    1be4:	e59f981c 	ldr	r9, [pc, #2076]	; 2408 <_svfprintf_r+0x1520>
    1be8:	da00001b 	ble	1c5c <_svfprintf_r+0xd74>
    1bec:	e3a07010 	mov	r7, #16
    1bf0:	e59d8040 	ldr	r8, [sp, #64]	; 0x40
    1bf4:	e59db030 	ldr	r11, [sp, #48]	; 0x30
    1bf8:	ea000002 	b	1c08 <_svfprintf_r+0xd20>
    1bfc:	e2466010 	sub	r6, r6, #16
    1c00:	e3560010 	cmp	r6, #16
    1c04:	da000014 	ble	1c5c <_svfprintf_r+0xd74>
    1c08:	e2844001 	add	r4, r4, #1
    1c0c:	e3540007 	cmp	r4, #7
    1c10:	e2855010 	add	r5, r5, #16
    1c14:	e58a9000 	str	r9, [r10]
    1c18:	e58a7004 	str	r7, [r10, #4]
    1c1c:	e58d50a4 	str	r5, [sp, #164]	; 0xa4
    1c20:	e58d40a0 	str	r4, [sp, #160]	; 0xa0
    1c24:	d28aa008 	addle	r10, r10, #8
    1c28:	dafffff3 	ble	1bfc <_svfprintf_r+0xd14>
    1c2c:	e1a00008 	mov	r0, r8
    1c30:	e1a0100b 	mov	r1, r11
    1c34:	e28d209c 	add	r2, sp, #156	; 0x9c
    1c38:	eb0012d7 	bl	679c <__ssprint_r>
    1c3c:	e3500000 	cmp	r0, #0
    1c40:	1afffd6d 	bne	11fc <_svfprintf_r+0x314>
    1c44:	e2466010 	sub	r6, r6, #16
    1c48:	e28d40a0 	add	r4, sp, #160	; 0xa0
    1c4c:	e3560010 	cmp	r6, #16
    1c50:	e8940030 	ldm	r4, {r4, r5}
    1c54:	e28da0d0 	add	r10, sp, #208	; 0xd0
    1c58:	caffffea 	bgt	1c08 <_svfprintf_r+0xd20>
    1c5c:	e2844001 	add	r4, r4, #1
    1c60:	e0865005 	add	r5, r6, r5
    1c64:	e3540007 	cmp	r4, #7
    1c68:	e58a9000 	str	r9, [r10]
    1c6c:	e58a6004 	str	r6, [r10, #4]
    1c70:	e58d50a4 	str	r5, [sp, #164]	; 0xa4
    1c74:	e58d40a0 	str	r4, [sp, #160]	; 0xa0
    1c78:	da000006 	ble	1c98 <_svfprintf_r+0xdb0>
    1c7c:	e59d0040 	ldr	r0, [sp, #64]	; 0x40
    1c80:	e59d1030 	ldr	r1, [sp, #48]	; 0x30
    1c84:	e28d209c 	add	r2, sp, #156	; 0x9c
    1c88:	eb0012c3 	bl	679c <__ssprint_r>
    1c8c:	e3500000 	cmp	r0, #0
    1c90:	1afffd59 	bne	11fc <_svfprintf_r+0x314>
    1c94:	e59d50a4 	ldr	r5, [sp, #164]	; 0xa4
    1c98:	e28d4028 	add	r4, sp, #40	; 0x28
    1c9c:	e8941010 	ldm	r4, {r4, r12}
    1ca0:	e59d0034 	ldr	r0, [sp, #52]	; 0x34
    1ca4:	e1540000 	cmp	r4, r0
    1ca8:	a08cc004 	addge	r12, r12, r4
    1cac:	b08cc000 	addlt	r12, r12, r0
    1cb0:	e3550000 	cmp	r5, #0
    1cb4:	e58dc02c 	str	r12, [sp, #44]	; 0x2c
    1cb8:	1a0000d8 	bne	2020 <_svfprintf_r+0x1138>
    1cbc:	e3a03000 	mov	r3, #0
    1cc0:	e58d30a0 	str	r3, [sp, #160]	; 0xa0
    1cc4:	e28da0d0 	add	r10, sp, #208	; 0xd0
    1cc8:	eafffcaa 	b	f78 <_svfprintf_r+0x90>
    1ccc:	e3570065 	cmp	r7, #101	; 0x65
    1cd0:	da000093 	ble	1f24 <_svfprintf_r+0x103c>
    1cd4:	e28d1060 	add	r1, sp, #96	; 0x60
    1cd8:	e8910003 	ldm	r1, {r0, r1}
    1cdc:	e3a02000 	mov	r2, #0
    1ce0:	e3a03000 	mov	r3, #0
    1ce4:	eb001cd2 	bl	9034 <__aeabi_dcmpeq>
    1ce8:	e3500000 	cmp	r0, #0
    1cec:	0a0000f7 	beq	20d0 <_svfprintf_r+0x11e8>
    1cf0:	e59d40a0 	ldr	r4, [sp, #160]	; 0xa0
    1cf4:	e59f3728 	ldr	r3, [pc, #1832]	; 2424 <_svfprintf_r+0x153c>
    1cf8:	e2844001 	add	r4, r4, #1
    1cfc:	e58a3000 	str	r3, [r10]
    1d00:	e2855001 	add	r5, r5, #1
    1d04:	e3540007 	cmp	r4, #7
    1d08:	e3a03001 	mov	r3, #1
    1d0c:	e58a3004 	str	r3, [r10, #4]
    1d10:	e58d50a4 	str	r5, [sp, #164]	; 0xa4
    1d14:	e58d40a0 	str	r4, [sp, #160]	; 0xa0
    1d18:	d28aa008 	addle	r10, r10, #8
    1d1c:	ca00025d 	bgt	2698 <_svfprintf_r+0x17b0>
    1d20:	e59d3080 	ldr	r3, [sp, #128]	; 0x80
    1d24:	e59d404c 	ldr	r4, [sp, #76]	; 0x4c
    1d28:	e1530004 	cmp	r3, r4
    1d2c:	ba000002 	blt	1d3c <_svfprintf_r+0xe54>
    1d30:	e59dc020 	ldr	r12, [sp, #32]
    1d34:	e31c0001 	tst	r12, #1
    1d38:	0affff9f 	beq	1bbc <_svfprintf_r+0xcd4>
    1d3c:	e59dc05c 	ldr	r12, [sp, #92]	; 0x5c
    1d40:	e59d40a0 	ldr	r4, [sp, #160]	; 0xa0
    1d44:	e085500c 	add	r5, r5, r12
    1d48:	e59dc058 	ldr	r12, [sp, #88]	; 0x58
    1d4c:	e2844001 	add	r4, r4, #1
    1d50:	e58ac000 	str	r12, [r10]
    1d54:	e59dc05c 	ldr	r12, [sp, #92]	; 0x5c
    1d58:	e3540007 	cmp	r4, #7
    1d5c:	e58ac004 	str	r12, [r10, #4]
    1d60:	e58d50a4 	str	r5, [sp, #164]	; 0xa4
    1d64:	e58d40a0 	str	r4, [sp, #160]	; 0xa0
    1d68:	d28aa008 	addle	r10, r10, #8
    1d6c:	ca00031c 	bgt	29e4 <_svfprintf_r+0x1afc>
    1d70:	e59d404c 	ldr	r4, [sp, #76]	; 0x4c
    1d74:	e2447001 	sub	r7, r4, #1
    1d78:	e3570000 	cmp	r7, #0
    1d7c:	daffff8e 	ble	1bbc <_svfprintf_r+0xcd4>
    1d80:	e3570010 	cmp	r7, #16
    1d84:	e59d40a0 	ldr	r4, [sp, #160]	; 0xa0
    1d88:	e59f6698 	ldr	r6, [pc, #1688]	; 2428 <_svfprintf_r+0x1540>
    1d8c:	da000152 	ble	22dc <_svfprintf_r+0x13f4>
    1d90:	e3a08010 	mov	r8, #16
    1d94:	e59d9040 	ldr	r9, [sp, #64]	; 0x40
    1d98:	e59db030 	ldr	r11, [sp, #48]	; 0x30
    1d9c:	ea000002 	b	1dac <_svfprintf_r+0xec4>
    1da0:	e2477010 	sub	r7, r7, #16
    1da4:	e3570010 	cmp	r7, #16
    1da8:	da00014b 	ble	22dc <_svfprintf_r+0x13f4>
    1dac:	e2844001 	add	r4, r4, #1
    1db0:	e3540007 	cmp	r4, #7
    1db4:	e2855010 	add	r5, r5, #16
    1db8:	e88a0140 	stm	r10, {r6, r8}
    1dbc:	e58d50a4 	str	r5, [sp, #164]	; 0xa4
    1dc0:	e58d40a0 	str	r4, [sp, #160]	; 0xa0
    1dc4:	d28aa008 	addle	r10, r10, #8
    1dc8:	dafffff4 	ble	1da0 <_svfprintf_r+0xeb8>
    1dcc:	e1a00009 	mov	r0, r9
    1dd0:	e1a0100b 	mov	r1, r11
    1dd4:	e28d209c 	add	r2, sp, #156	; 0x9c
    1dd8:	eb00126f 	bl	679c <__ssprint_r>
    1ddc:	e3500000 	cmp	r0, #0
    1de0:	1afffd05 	bne	11fc <_svfprintf_r+0x314>
    1de4:	e28d40a0 	add	r4, sp, #160	; 0xa0
    1de8:	e8940030 	ldm	r4, {r4, r5}
    1dec:	e28da0d0 	add	r10, sp, #208	; 0xd0
    1df0:	eaffffea 	b	1da0 <_svfprintf_r+0xeb8>
    1df4:	e3530000 	cmp	r3, #0
    1df8:	158d2038 	strne	r2, [sp, #56]	; 0x38
    1dfc:	128d80d0 	addne	r8, sp, #208	; 0xd0
    1e00:	1afffd6d 	bne	13bc <_svfprintf_r+0x4d4>
    1e04:	e59d4020 	ldr	r4, [sp, #32]
    1e08:	e3140001 	tst	r4, #1
    1e0c:	128d8e11 	addne	r8, sp, #272	; 0x110
    1e10:	13a03030 	movne	r3, #48	; 0x30
    1e14:	159dc01c 	ldrne	r12, [sp, #28]
    1e18:	15683041 	strbne	r3, [r8, #-65]!	; 0xffffffbf
    1e1c:	1068c00c 	rsbne	r12, r8, r12
    1e20:	158dc038 	strne	r12, [sp, #56]	; 0x38
    1e24:	058d3038 	streq	r3, [sp, #56]	; 0x38
    1e28:	028d80d0 	addeq	r8, sp, #208	; 0xd0
    1e2c:	eafffd62 	b	13bc <_svfprintf_r+0x4d4>
    1e30:	e59dc034 	ldr	r12, [sp, #52]	; 0x34
    1e34:	e59d4028 	ldr	r4, [sp, #40]	; 0x28
    1e38:	e064900c 	rsb	r9, r4, r12
    1e3c:	e3590000 	cmp	r9, #0
    1e40:	daffff14 	ble	1a98 <_svfprintf_r+0xbb0>
    1e44:	e3590010 	cmp	r9, #16
    1e48:	e59d40a0 	ldr	r4, [sp, #160]	; 0xa0
    1e4c:	e59f65d4 	ldr	r6, [pc, #1492]	; 2428 <_svfprintf_r+0x1540>
    1e50:	da000022 	ble	1ee0 <_svfprintf_r+0xff8>
    1e54:	e58d703c 	str	r7, [sp, #60]	; 0x3c
    1e58:	e58d8050 	str	r8, [sp, #80]	; 0x50
    1e5c:	e3a0b010 	mov	r11, #16
    1e60:	e1a08009 	mov	r8, r9
    1e64:	e59d7030 	ldr	r7, [sp, #48]	; 0x30
    1e68:	e1a09006 	mov	r9, r6
    1e6c:	e59d6040 	ldr	r6, [sp, #64]	; 0x40
    1e70:	ea000002 	b	1e80 <_svfprintf_r+0xf98>
    1e74:	e2488010 	sub	r8, r8, #16
    1e78:	e3580010 	cmp	r8, #16
    1e7c:	da000013 	ble	1ed0 <_svfprintf_r+0xfe8>
    1e80:	e2844001 	add	r4, r4, #1
    1e84:	e3540007 	cmp	r4, #7
    1e88:	e2855010 	add	r5, r5, #16
    1e8c:	e88a0a00 	stm	r10, {r9, r11}
    1e90:	e58d50a4 	str	r5, [sp, #164]	; 0xa4
    1e94:	e58d40a0 	str	r4, [sp, #160]	; 0xa0
    1e98:	d28aa008 	addle	r10, r10, #8
    1e9c:	dafffff4 	ble	1e74 <_svfprintf_r+0xf8c>
    1ea0:	e1a00006 	mov	r0, r6
    1ea4:	e1a01007 	mov	r1, r7
    1ea8:	e28d209c 	add	r2, sp, #156	; 0x9c
    1eac:	eb00123a 	bl	679c <__ssprint_r>
    1eb0:	e3500000 	cmp	r0, #0
    1eb4:	1afffcd0 	bne	11fc <_svfprintf_r+0x314>
    1eb8:	e2488010 	sub	r8, r8, #16
    1ebc:	e28d40a0 	add	r4, sp, #160	; 0xa0
    1ec0:	e3580010 	cmp	r8, #16
    1ec4:	e8940030 	ldm	r4, {r4, r5}
    1ec8:	e28da0d0 	add	r10, sp, #208	; 0xd0
    1ecc:	caffffeb 	bgt	1e80 <_svfprintf_r+0xf98>
    1ed0:	e1a06009 	mov	r6, r9
    1ed4:	e59d703c 	ldr	r7, [sp, #60]	; 0x3c
    1ed8:	e1a09008 	mov	r9, r8
    1edc:	e59d8050 	ldr	r8, [sp, #80]	; 0x50
    1ee0:	e2844001 	add	r4, r4, #1
    1ee4:	e0855009 	add	r5, r5, r9
    1ee8:	e3540007 	cmp	r4, #7
    1eec:	e88a0240 	stm	r10, {r6, r9}
    1ef0:	e58d50a4 	str	r5, [sp, #164]	; 0xa4
    1ef4:	e58d40a0 	str	r4, [sp, #160]	; 0xa0
    1ef8:	d28aa008 	addle	r10, r10, #8
    1efc:	dafffee5 	ble	1a98 <_svfprintf_r+0xbb0>
    1f00:	e59d0040 	ldr	r0, [sp, #64]	; 0x40
    1f04:	e59d1030 	ldr	r1, [sp, #48]	; 0x30
    1f08:	e28d209c 	add	r2, sp, #156	; 0x9c
    1f0c:	eb001222 	bl	679c <__ssprint_r>
    1f10:	e3500000 	cmp	r0, #0
    1f14:	1afffcb8 	bne	11fc <_svfprintf_r+0x314>
    1f18:	e59d50a4 	ldr	r5, [sp, #164]	; 0xa4
    1f1c:	e28da0d0 	add	r10, sp, #208	; 0xd0
    1f20:	eafffedc 	b	1a98 <_svfprintf_r+0xbb0>
    1f24:	e59d404c 	ldr	r4, [sp, #76]	; 0x4c
    1f28:	e3540001 	cmp	r4, #1
    1f2c:	e59d40a0 	ldr	r4, [sp, #160]	; 0xa0
    1f30:	e2855001 	add	r5, r5, #1
    1f34:	e2844001 	add	r4, r4, #1
    1f38:	da000169 	ble	24e4 <_svfprintf_r+0x15fc>
    1f3c:	e3540007 	cmp	r4, #7
    1f40:	e3a03001 	mov	r3, #1
    1f44:	e58a8000 	str	r8, [r10]
    1f48:	e58a3004 	str	r3, [r10, #4]
    1f4c:	e58d50a4 	str	r5, [sp, #164]	; 0xa4
    1f50:	e58d40a0 	str	r4, [sp, #160]	; 0xa0
    1f54:	d28aa008 	addle	r10, r10, #8
    1f58:	ca00016c 	bgt	2510 <_svfprintf_r+0x1628>
    1f5c:	e59dc05c 	ldr	r12, [sp, #92]	; 0x5c
    1f60:	e085500c 	add	r5, r5, r12
    1f64:	e59dc058 	ldr	r12, [sp, #88]	; 0x58
    1f68:	e2844001 	add	r4, r4, #1
    1f6c:	e58ac000 	str	r12, [r10]
    1f70:	e59dc05c 	ldr	r12, [sp, #92]	; 0x5c
    1f74:	e3540007 	cmp	r4, #7
    1f78:	e58ac004 	str	r12, [r10, #4]
    1f7c:	e58d50a4 	str	r5, [sp, #164]	; 0xa4
    1f80:	e58d40a0 	str	r4, [sp, #160]	; 0xa0
    1f84:	d28aa008 	addle	r10, r10, #8
    1f88:	ca00016a 	bgt	2538 <_svfprintf_r+0x1650>
    1f8c:	e28d1060 	add	r1, sp, #96	; 0x60
    1f90:	e8910003 	ldm	r1, {r0, r1}
    1f94:	e3a02000 	mov	r2, #0
    1f98:	e3a03000 	mov	r3, #0
    1f9c:	eb001c24 	bl	9034 <__aeabi_dcmpeq>
    1fa0:	e3500000 	cmp	r0, #0
    1fa4:	e59dc04c 	ldr	r12, [sp, #76]	; 0x4c
    1fa8:	1a00008e 	bne	21e8 <_svfprintf_r+0x1300>
    1fac:	e24c3001 	sub	r3, r12, #1
    1fb0:	e2844001 	add	r4, r4, #1
    1fb4:	e2888001 	add	r8, r8, #1
    1fb8:	e0855003 	add	r5, r5, r3
    1fbc:	e3540007 	cmp	r4, #7
    1fc0:	e58a8000 	str	r8, [r10]
    1fc4:	e58a3004 	str	r3, [r10, #4]
    1fc8:	e58d50a4 	str	r5, [sp, #164]	; 0xa4
    1fcc:	e58d40a0 	str	r4, [sp, #160]	; 0xa0
    1fd0:	ca0000ac 	bgt	2288 <_svfprintf_r+0x13a0>
    1fd4:	e28aa008 	add	r10, r10, #8
    1fd8:	e59dc068 	ldr	r12, [sp, #104]	; 0x68
    1fdc:	e2844001 	add	r4, r4, #1
    1fe0:	e085500c 	add	r5, r5, r12
    1fe4:	e28d308c 	add	r3, sp, #140	; 0x8c
    1fe8:	e3540007 	cmp	r4, #7
    1fec:	e88a1008 	stm	r10, {r3, r12}
    1ff0:	e58d50a4 	str	r5, [sp, #164]	; 0xa4
    1ff4:	e58d40a0 	str	r4, [sp, #160]	; 0xa0
    1ff8:	dafffeee 	ble	1bb8 <_svfprintf_r+0xcd0>
    1ffc:	e59d0040 	ldr	r0, [sp, #64]	; 0x40
    2000:	e59d1030 	ldr	r1, [sp, #48]	; 0x30
    2004:	e28d209c 	add	r2, sp, #156	; 0x9c
    2008:	eb0011e3 	bl	679c <__ssprint_r>
    200c:	e3500000 	cmp	r0, #0
    2010:	1afffc79 	bne	11fc <_svfprintf_r+0x314>
    2014:	e28da0d0 	add	r10, sp, #208	; 0xd0
    2018:	e59d50a4 	ldr	r5, [sp, #164]	; 0xa4
    201c:	eafffee6 	b	1bbc <_svfprintf_r+0xcd4>
    2020:	e59d0040 	ldr	r0, [sp, #64]	; 0x40
    2024:	e59d1030 	ldr	r1, [sp, #48]	; 0x30
    2028:	e28d209c 	add	r2, sp, #156	; 0x9c
    202c:	eb0011da 	bl	679c <__ssprint_r>
    2030:	e3500000 	cmp	r0, #0
    2034:	0affff20 	beq	1cbc <_svfprintf_r+0xdd4>
    2038:	eafffc6f 	b	11fc <_svfprintf_r+0x314>
    203c:	e59d906c 	ldr	r9, [sp, #108]	; 0x6c
    2040:	e3a0000f 	mov	r0, #15
    2044:	e1a08224 	lsr	r8, r4, #4
    2048:	e0042000 	and	r2, r4, r0
    204c:	e1888e05 	orr	r8, r8, r5, lsl #28
    2050:	e1a0b225 	lsr	r11, r5, #4
    2054:	e0892002 	add	r2, r9, r2
    2058:	e1a04008 	mov	r4, r8
    205c:	e5d23000 	ldrb	r3, [r2]
    2060:	e1a0500b 	mov	r5, r11
    2064:	e1a0800c 	mov	r8, r12
    2068:	e194c005 	orrs	r12, r4, r5
    206c:	e5c83000 	strb	r3, [r8]
    2070:	e248c001 	sub	r12, r8, #1
    2074:	1afffff2 	bne	2044 <_svfprintf_r+0x115c>
    2078:	e59d301c 	ldr	r3, [sp, #28]
    207c:	e0683003 	rsb	r3, r8, r3
    2080:	e58d3038 	str	r3, [sp, #56]	; 0x38
    2084:	eafffccc 	b	13bc <_svfprintf_r+0x4d4>
    2088:	e59d0040 	ldr	r0, [sp, #64]	; 0x40
    208c:	e59d1030 	ldr	r1, [sp, #48]	; 0x30
    2090:	e28d209c 	add	r2, sp, #156	; 0x9c
    2094:	eb0011c0 	bl	679c <__ssprint_r>
    2098:	e3500000 	cmp	r0, #0
    209c:	1afffc56 	bne	11fc <_svfprintf_r+0x314>
    20a0:	e59d50a4 	ldr	r5, [sp, #164]	; 0xa4
    20a4:	e28da0d0 	add	r10, sp, #208	; 0xd0
    20a8:	eafffe68 	b	1a50 <_svfprintf_r+0xb68>
    20ac:	e59d0040 	ldr	r0, [sp, #64]	; 0x40
    20b0:	e59d1030 	ldr	r1, [sp, #48]	; 0x30
    20b4:	e28d209c 	add	r2, sp, #156	; 0x9c
    20b8:	eb0011b7 	bl	679c <__ssprint_r>
    20bc:	e3500000 	cmp	r0, #0
    20c0:	1afffc4d 	bne	11fc <_svfprintf_r+0x314>
    20c4:	e59d50a4 	ldr	r5, [sp, #164]	; 0xa4
    20c8:	e28da0d0 	add	r10, sp, #208	; 0xd0
    20cc:	eafffe6e 	b	1a8c <_svfprintf_r+0xba4>
    20d0:	e59d7080 	ldr	r7, [sp, #128]	; 0x80
    20d4:	e3570000 	cmp	r7, #0
    20d8:	da000177 	ble	26bc <_svfprintf_r+0x17d4>
    20dc:	e59d604c 	ldr	r6, [sp, #76]	; 0x4c
    20e0:	e59d4054 	ldr	r4, [sp, #84]	; 0x54
    20e4:	e59dc04c 	ldr	r12, [sp, #76]	; 0x4c
    20e8:	e1560004 	cmp	r6, r4
    20ec:	a1a06004 	movge	r6, r4
    20f0:	e3560000 	cmp	r6, #0
    20f4:	e088b00c 	add	r11, r8, r12
    20f8:	da000009 	ble	2124 <_svfprintf_r+0x123c>
    20fc:	e59d40a0 	ldr	r4, [sp, #160]	; 0xa0
    2100:	e2844001 	add	r4, r4, #1
    2104:	e0855006 	add	r5, r5, r6
    2108:	e3540007 	cmp	r4, #7
    210c:	e58a8000 	str	r8, [r10]
    2110:	e58a6004 	str	r6, [r10, #4]
    2114:	e58d50a4 	str	r5, [sp, #164]	; 0xa4
    2118:	e58d40a0 	str	r4, [sp, #160]	; 0xa0
    211c:	d28aa008 	addle	r10, r10, #8
    2120:	ca000290 	bgt	2b68 <_svfprintf_r+0x1c80>
    2124:	e59d4054 	ldr	r4, [sp, #84]	; 0x54
    2128:	e1c66fc6 	bic	r6, r6, r6, asr #31
    212c:	e0667004 	rsb	r7, r6, r4
    2130:	e3570000 	cmp	r7, #0
    2134:	da00008c 	ble	236c <_svfprintf_r+0x1484>
    2138:	e3570010 	cmp	r7, #16
    213c:	e59d40a0 	ldr	r4, [sp, #160]	; 0xa0
    2140:	e59f62e0 	ldr	r6, [pc, #736]	; 2428 <_svfprintf_r+0x1540>
    2144:	da000078 	ble	232c <_svfprintf_r+0x1444>
    2148:	e58d8038 	str	r8, [sp, #56]	; 0x38
    214c:	e58db044 	str	r11, [sp, #68]	; 0x44
    2150:	e1a08007 	mov	r8, r7
    2154:	e1a0b006 	mov	r11, r6
    2158:	e3a09010 	mov	r9, #16
    215c:	e59d7030 	ldr	r7, [sp, #48]	; 0x30
    2160:	e59d6040 	ldr	r6, [sp, #64]	; 0x40
    2164:	ea000002 	b	2174 <_svfprintf_r+0x128c>
    2168:	e2488010 	sub	r8, r8, #16
    216c:	e3580010 	cmp	r8, #16
    2170:	da000069 	ble	231c <_svfprintf_r+0x1434>
    2174:	e2844001 	add	r4, r4, #1
    2178:	e3540007 	cmp	r4, #7
    217c:	e2855010 	add	r5, r5, #16
    2180:	e58ab000 	str	r11, [r10]
    2184:	e58a9004 	str	r9, [r10, #4]
    2188:	e58d50a4 	str	r5, [sp, #164]	; 0xa4
    218c:	e58d40a0 	str	r4, [sp, #160]	; 0xa0
    2190:	d28aa008 	addle	r10, r10, #8
    2194:	dafffff3 	ble	2168 <_svfprintf_r+0x1280>
    2198:	e1a00006 	mov	r0, r6
    219c:	e1a01007 	mov	r1, r7
    21a0:	e28d209c 	add	r2, sp, #156	; 0x9c
    21a4:	eb00117c 	bl	679c <__ssprint_r>
    21a8:	e3500000 	cmp	r0, #0
    21ac:	1afffc12 	bne	11fc <_svfprintf_r+0x314>
    21b0:	e28d40a0 	add	r4, sp, #160	; 0xa0
    21b4:	e8940030 	ldm	r4, {r4, r5}
    21b8:	e28da0d0 	add	r10, sp, #208	; 0xd0
    21bc:	eaffffe9 	b	2168 <_svfprintf_r+0x1280>
    21c0:	e3550000 	cmp	r5, #0
    21c4:	03540009 	cmpeq	r4, #9
    21c8:	8a0000e4 	bhi	2560 <_svfprintf_r+0x1678>
    21cc:	e28d8e11 	add	r8, sp, #272	; 0x110
    21d0:	e2844030 	add	r4, r4, #48	; 0x30
    21d4:	e5684041 	strb	r4, [r8, #-65]!	; 0xffffffbf
    21d8:	e59dc01c 	ldr	r12, [sp, #28]
    21dc:	e068c00c 	rsb	r12, r8, r12
    21e0:	e58dc038 	str	r12, [sp, #56]	; 0x38
    21e4:	eafffc74 	b	13bc <_svfprintf_r+0x4d4>
    21e8:	e24c7001 	sub	r7, r12, #1
    21ec:	e3570000 	cmp	r7, #0
    21f0:	daffff78 	ble	1fd8 <_svfprintf_r+0x10f0>
    21f4:	e3570010 	cmp	r7, #16
    21f8:	e59f6228 	ldr	r6, [pc, #552]	; 2428 <_svfprintf_r+0x1540>
    21fc:	da00001a 	ble	226c <_svfprintf_r+0x1384>
    2200:	e3a08010 	mov	r8, #16
    2204:	e59d9040 	ldr	r9, [sp, #64]	; 0x40
    2208:	e59db030 	ldr	r11, [sp, #48]	; 0x30
    220c:	ea000002 	b	221c <_svfprintf_r+0x1334>
    2210:	e2477010 	sub	r7, r7, #16
    2214:	e3570010 	cmp	r7, #16
    2218:	da000013 	ble	226c <_svfprintf_r+0x1384>
    221c:	e2844001 	add	r4, r4, #1
    2220:	e3540007 	cmp	r4, #7
    2224:	e2855010 	add	r5, r5, #16
    2228:	e88a0140 	stm	r10, {r6, r8}
    222c:	e58d50a4 	str	r5, [sp, #164]	; 0xa4
    2230:	e58d40a0 	str	r4, [sp, #160]	; 0xa0
    2234:	d28aa008 	addle	r10, r10, #8
    2238:	dafffff4 	ble	2210 <_svfprintf_r+0x1328>
    223c:	e1a00009 	mov	r0, r9
    2240:	e1a0100b 	mov	r1, r11
    2244:	e28d209c 	add	r2, sp, #156	; 0x9c
    2248:	eb001153 	bl	679c <__ssprint_r>
    224c:	e3500000 	cmp	r0, #0
    2250:	1afffbe9 	bne	11fc <_svfprintf_r+0x314>
    2254:	e2477010 	sub	r7, r7, #16
    2258:	e28d40a0 	add	r4, sp, #160	; 0xa0
    225c:	e3570010 	cmp	r7, #16
    2260:	e8940030 	ldm	r4, {r4, r5}
    2264:	e28da0d0 	add	r10, sp, #208	; 0xd0
    2268:	caffffeb 	bgt	221c <_svfprintf_r+0x1334>
    226c:	e2844001 	add	r4, r4, #1
    2270:	e0855007 	add	r5, r5, r7
    2274:	e3540007 	cmp	r4, #7
    2278:	e88a00c0 	stm	r10, {r6, r7}
    227c:	e58d50a4 	str	r5, [sp, #164]	; 0xa4
    2280:	e58d40a0 	str	r4, [sp, #160]	; 0xa0
    2284:	daffff52 	ble	1fd4 <_svfprintf_r+0x10ec>
    2288:	e59d0040 	ldr	r0, [sp, #64]	; 0x40
    228c:	e59d1030 	ldr	r1, [sp, #48]	; 0x30
    2290:	e28d209c 	add	r2, sp, #156	; 0x9c
    2294:	eb001140 	bl	679c <__ssprint_r>
    2298:	e3500000 	cmp	r0, #0
    229c:	1afffbd6 	bne	11fc <_svfprintf_r+0x314>
    22a0:	e28d40a0 	add	r4, sp, #160	; 0xa0
    22a4:	e28da0d0 	add	r10, sp, #208	; 0xd0
    22a8:	e8940030 	ldm	r4, {r4, r5}
    22ac:	eaffff49 	b	1fd8 <_svfprintf_r+0x10f0>
    22b0:	e1941005 	orrs	r1, r4, r5
    22b4:	159dc020 	ldrne	r12, [sp, #32]
    22b8:	13a03030 	movne	r3, #48	; 0x30
    22bc:	138cc002 	orrne	r12, r12, #2
    22c0:	15cd307c 	strbne	r3, [sp, #124]	; 0x7c
    22c4:	15cd707d 	strbne	r7, [sp, #125]	; 0x7d
    22c8:	158dc020 	strne	r12, [sp, #32]
    22cc:	13a02001 	movne	r2, #1
    22d0:	03a02000 	moveq	r2, #0
    22d4:	e3a03002 	mov	r3, #2
    22d8:	eafffcd1 	b	1624 <_svfprintf_r+0x73c>
    22dc:	e2844001 	add	r4, r4, #1
    22e0:	e0855007 	add	r5, r5, r7
    22e4:	e3540007 	cmp	r4, #7
    22e8:	e88a00c0 	stm	r10, {r6, r7}
    22ec:	e58d50a4 	str	r5, [sp, #164]	; 0xa4
    22f0:	e58d40a0 	str	r4, [sp, #160]	; 0xa0
    22f4:	dafffe2f 	ble	1bb8 <_svfprintf_r+0xcd0>
    22f8:	eaffff3f 	b	1ffc <_svfprintf_r+0x1114>
    22fc:	e59d4048 	ldr	r4, [sp, #72]	; 0x48
    2300:	e59dc048 	ldr	r12, [sp, #72]	; 0x48
    2304:	e5943000 	ldr	r3, [r4]
    2308:	e28cc004 	add	r12, r12, #4
    230c:	e1a04003 	mov	r4, r3
    2310:	e3a05000 	mov	r5, #0
    2314:	e58dc048 	str	r12, [sp, #72]	; 0x48
    2318:	eafffcba 	b	1608 <_svfprintf_r+0x720>
    231c:	e1a07008 	mov	r7, r8
    2320:	e1a0600b 	mov	r6, r11
    2324:	e59d8038 	ldr	r8, [sp, #56]	; 0x38
    2328:	e59db044 	ldr	r11, [sp, #68]	; 0x44
    232c:	e2844001 	add	r4, r4, #1
    2330:	e0855007 	add	r5, r5, r7
    2334:	e3540007 	cmp	r4, #7
    2338:	e88a00c0 	stm	r10, {r6, r7}
    233c:	e58d50a4 	str	r5, [sp, #164]	; 0xa4
    2340:	e58d40a0 	str	r4, [sp, #160]	; 0xa0
    2344:	d28aa008 	addle	r10, r10, #8
    2348:	da000007 	ble	236c <_svfprintf_r+0x1484>
    234c:	e59d0040 	ldr	r0, [sp, #64]	; 0x40
    2350:	e59d1030 	ldr	r1, [sp, #48]	; 0x30
    2354:	e28d209c 	add	r2, sp, #156	; 0x9c
    2358:	eb00110f 	bl	679c <__ssprint_r>
    235c:	e3500000 	cmp	r0, #0
    2360:	1afffba5 	bne	11fc <_svfprintf_r+0x314>
    2364:	e59d50a4 	ldr	r5, [sp, #164]	; 0xa4
    2368:	e28da0d0 	add	r10, sp, #208	; 0xd0
    236c:	e59d3080 	ldr	r3, [sp, #128]	; 0x80
    2370:	e59dc04c 	ldr	r12, [sp, #76]	; 0x4c
    2374:	e59d4054 	ldr	r4, [sp, #84]	; 0x54
    2378:	e153000c 	cmp	r3, r12
    237c:	e0888004 	add	r8, r8, r4
    2380:	ba000040 	blt	2488 <_svfprintf_r+0x15a0>
    2384:	e59dc020 	ldr	r12, [sp, #32]
    2388:	e31c0001 	tst	r12, #1
    238c:	1a00003d 	bne	2488 <_svfprintf_r+0x15a0>
    2390:	e59d404c 	ldr	r4, [sp, #76]	; 0x4c
    2394:	e068600b 	rsb	r6, r8, r11
    2398:	e0633004 	rsb	r3, r3, r4
    239c:	e1530006 	cmp	r3, r6
    23a0:	b1a06003 	movlt	r6, r3
    23a4:	a1a06006 	movge	r6, r6
    23a8:	e3560000 	cmp	r6, #0
    23ac:	da000009 	ble	23d8 <_svfprintf_r+0x14f0>
    23b0:	e59d40a0 	ldr	r4, [sp, #160]	; 0xa0
    23b4:	e2844001 	add	r4, r4, #1
    23b8:	e0855006 	add	r5, r5, r6
    23bc:	e3540007 	cmp	r4, #7
    23c0:	e58a8000 	str	r8, [r10]
    23c4:	e58a6004 	str	r6, [r10, #4]
    23c8:	e58d50a4 	str	r5, [sp, #164]	; 0xa4
    23cc:	e58d40a0 	str	r4, [sp, #160]	; 0xa0
    23d0:	d28aa008 	addle	r10, r10, #8
    23d4:	ca0001ec 	bgt	2b8c <_svfprintf_r+0x1ca4>
    23d8:	e1c66fc6 	bic	r6, r6, r6, asr #31
    23dc:	e0667003 	rsb	r7, r6, r3
    23e0:	e3570000 	cmp	r7, #0
    23e4:	dafffdf4 	ble	1bbc <_svfprintf_r+0xcd4>
    23e8:	e3570010 	cmp	r7, #16
    23ec:	e59d40a0 	ldr	r4, [sp, #160]	; 0xa0
    23f0:	e59f6030 	ldr	r6, [pc, #48]	; 2428 <_svfprintf_r+0x1540>
    23f4:	daffffb8 	ble	22dc <_svfprintf_r+0x13f4>
    23f8:	e3a08010 	mov	r8, #16
    23fc:	e59d9040 	ldr	r9, [sp, #64]	; 0x40
    2400:	e59db030 	ldr	r11, [sp, #48]	; 0x30
    2404:	ea00000d 	b	2440 <_svfprintf_r+0x1558>
    2408:	00009e38 	.word	0x00009e38
    240c:	00009e58 	.word	0x00009e58
    2410:	00009e5c 	.word	0x00009e5c
    2414:	00009e68 	.word	0x00009e68
    2418:	00009e7c 	.word	0x00009e7c
    241c:	00009e60 	.word	0x00009e60
    2420:	00009e64 	.word	0x00009e64
    2424:	00009e98 	.word	0x00009e98
    2428:	00009e48 	.word	0x00009e48
    242c:	00009e90 	.word	0x00009e90
    2430:	66666667 	.word	0x66666667
    2434:	e2477010 	sub	r7, r7, #16
    2438:	e3570010 	cmp	r7, #16
    243c:	daffffa6 	ble	22dc <_svfprintf_r+0x13f4>
    2440:	e2844001 	add	r4, r4, #1
    2444:	e3540007 	cmp	r4, #7
    2448:	e2855010 	add	r5, r5, #16
    244c:	e88a0140 	stm	r10, {r6, r8}
    2450:	e58d50a4 	str	r5, [sp, #164]	; 0xa4
    2454:	e58d40a0 	str	r4, [sp, #160]	; 0xa0
    2458:	d28aa008 	addle	r10, r10, #8
    245c:	dafffff4 	ble	2434 <_svfprintf_r+0x154c>
    2460:	e1a00009 	mov	r0, r9
    2464:	e1a0100b 	mov	r1, r11
    2468:	e28d209c 	add	r2, sp, #156	; 0x9c
    246c:	eb0010ca 	bl	679c <__ssprint_r>
    2470:	e3500000 	cmp	r0, #0
    2474:	1afffb60 	bne	11fc <_svfprintf_r+0x314>
    2478:	e28d40a0 	add	r4, sp, #160	; 0xa0
    247c:	e8940030 	ldm	r4, {r4, r5}
    2480:	e28da0d0 	add	r10, sp, #208	; 0xd0
    2484:	eaffffea 	b	2434 <_svfprintf_r+0x154c>
    2488:	e59dc05c 	ldr	r12, [sp, #92]	; 0x5c
    248c:	e59d40a0 	ldr	r4, [sp, #160]	; 0xa0
    2490:	e085500c 	add	r5, r5, r12
    2494:	e59dc058 	ldr	r12, [sp, #88]	; 0x58
    2498:	e2844001 	add	r4, r4, #1
    249c:	e58ac000 	str	r12, [r10]
    24a0:	e59dc05c 	ldr	r12, [sp, #92]	; 0x5c
    24a4:	e3540007 	cmp	r4, #7
    24a8:	e58ac004 	str	r12, [r10, #4]
    24ac:	e58d50a4 	str	r5, [sp, #164]	; 0xa4
    24b0:	e58d40a0 	str	r4, [sp, #160]	; 0xa0
    24b4:	d28aa008 	addle	r10, r10, #8
    24b8:	daffffb4 	ble	2390 <_svfprintf_r+0x14a8>
    24bc:	e59d0040 	ldr	r0, [sp, #64]	; 0x40
    24c0:	e59d1030 	ldr	r1, [sp, #48]	; 0x30
    24c4:	e28d209c 	add	r2, sp, #156	; 0x9c
    24c8:	eb0010b3 	bl	679c <__ssprint_r>
    24cc:	e3500000 	cmp	r0, #0
    24d0:	1afffb49 	bne	11fc <_svfprintf_r+0x314>
    24d4:	e59d3080 	ldr	r3, [sp, #128]	; 0x80
    24d8:	e59d50a4 	ldr	r5, [sp, #164]	; 0xa4
    24dc:	e28da0d0 	add	r10, sp, #208	; 0xd0
    24e0:	eaffffaa 	b	2390 <_svfprintf_r+0x14a8>
    24e4:	e59dc020 	ldr	r12, [sp, #32]
    24e8:	e31c0001 	tst	r12, #1
    24ec:	1afffe92 	bne	1f3c <_svfprintf_r+0x1054>
    24f0:	e3a03001 	mov	r3, #1
    24f4:	e3540007 	cmp	r4, #7
    24f8:	e58a8000 	str	r8, [r10]
    24fc:	e58a3004 	str	r3, [r10, #4]
    2500:	e58d50a4 	str	r5, [sp, #164]	; 0xa4
    2504:	e58d40a0 	str	r4, [sp, #160]	; 0xa0
    2508:	dafffeb1 	ble	1fd4 <_svfprintf_r+0x10ec>
    250c:	eaffff5d 	b	2288 <_svfprintf_r+0x13a0>
    2510:	e59d0040 	ldr	r0, [sp, #64]	; 0x40
    2514:	e59d1030 	ldr	r1, [sp, #48]	; 0x30
    2518:	e28d209c 	add	r2, sp, #156	; 0x9c
    251c:	eb00109e 	bl	679c <__ssprint_r>
    2520:	e3500000 	cmp	r0, #0
    2524:	1afffb34 	bne	11fc <_svfprintf_r+0x314>
    2528:	e28d40a0 	add	r4, sp, #160	; 0xa0
    252c:	e8940030 	ldm	r4, {r4, r5}
    2530:	e28da0d0 	add	r10, sp, #208	; 0xd0
    2534:	eafffe88 	b	1f5c <_svfprintf_r+0x1074>
    2538:	e59d0040 	ldr	r0, [sp, #64]	; 0x40
    253c:	e59d1030 	ldr	r1, [sp, #48]	; 0x30
    2540:	e28d209c 	add	r2, sp, #156	; 0x9c
    2544:	eb001094 	bl	679c <__ssprint_r>
    2548:	e3500000 	cmp	r0, #0
    254c:	1afffb2a 	bne	11fc <_svfprintf_r+0x314>
    2550:	e28d40a0 	add	r4, sp, #160	; 0xa0
    2554:	e8940030 	ldm	r4, {r4, r5}
    2558:	e28da0d0 	add	r10, sp, #208	; 0xd0
    255c:	eafffe8a 	b	1f8c <_svfprintf_r+0x10a4>
    2560:	e28d90cf 	add	r9, sp, #207	; 0xcf
    2564:	e1a00004 	mov	r0, r4
    2568:	e1a01005 	mov	r1, r5
    256c:	e3a0200a 	mov	r2, #10
    2570:	e3a03000 	mov	r3, #0
    2574:	eb001ae3 	bl	9108 <__aeabi_uldivmod>
    2578:	e2822030 	add	r2, r2, #48	; 0x30
    257c:	e5c92000 	strb	r2, [r9]
    2580:	e1a00004 	mov	r0, r4
    2584:	e1a01005 	mov	r1, r5
    2588:	e3a0200a 	mov	r2, #10
    258c:	e3a03000 	mov	r3, #0
    2590:	eb001adc 	bl	9108 <__aeabi_uldivmod>
    2594:	e1a04000 	mov	r4, r0
    2598:	e1a05001 	mov	r5, r1
    259c:	e1940005 	orrs	r0, r4, r5
    25a0:	e1a08009 	mov	r8, r9
    25a4:	e2499001 	sub	r9, r9, #1
    25a8:	1affffed 	bne	2564 <_svfprintf_r+0x167c>
    25ac:	e59d301c 	ldr	r3, [sp, #28]
    25b0:	e0683003 	rsb	r3, r8, r3
    25b4:	e58d3038 	str	r3, [sp, #56]	; 0x38
    25b8:	eafffb7f 	b	13bc <_svfprintf_r+0x4d4>
    25bc:	eb000fa7 	bl	6460 <__fpclassifyd>
    25c0:	e3500000 	cmp	r0, #0
    25c4:	1a0000a5 	bne	2860 <_svfprintf_r+0x1978>
    25c8:	e3a0c003 	mov	r12, #3
    25cc:	e58d0044 	str	r0, [sp, #68]	; 0x44
    25d0:	e59d4020 	ldr	r4, [sp, #32]
    25d4:	e58dc028 	str	r12, [sp, #40]	; 0x28
    25d8:	e51f01c4 	ldr	r0, [pc, #-452]	; 241c <_svfprintf_r+0x1534>
    25dc:	e58dc038 	str	r12, [sp, #56]	; 0x38
    25e0:	e59dc044 	ldr	r12, [sp, #68]	; 0x44
    25e4:	e3570047 	cmp	r7, #71	; 0x47
    25e8:	e3c44080 	bic	r4, r4, #128	; 0x80
    25ec:	e51f81d4 	ldr	r8, [pc, #-468]	; 2420 <_svfprintf_r+0x1538>
    25f0:	e58d4020 	str	r4, [sp, #32]
    25f4:	d1a08000 	movle	r8, r0
    25f8:	e5dd307b 	ldrb	r3, [sp, #123]	; 0x7b
    25fc:	e58dc054 	str	r12, [sp, #84]	; 0x54
    2600:	eafffb75 	b	13dc <_svfprintf_r+0x4f4>
    2604:	e5d37000 	ldrb	r7, [r3]
    2608:	eafffa86 	b	1028 <_svfprintf_r+0x140>
    260c:	e59d4020 	ldr	r4, [sp, #32]
    2610:	e3140010 	tst	r4, #16
    2614:	0a0000fb 	beq	2a08 <_svfprintf_r+0x1b20>
    2618:	e59dc048 	ldr	r12, [sp, #72]	; 0x48
    261c:	e59d402c 	ldr	r4, [sp, #44]	; 0x2c
    2620:	e59c3000 	ldr	r3, [r12]
    2624:	e28cc004 	add	r12, r12, #4
    2628:	e58dc048 	str	r12, [sp, #72]	; 0x48
    262c:	e5834000 	str	r4, [r3]
    2630:	eafffa50 	b	f78 <_svfprintf_r+0x90>
    2634:	e59d4020 	ldr	r4, [sp, #32]
    2638:	e3140040 	tst	r4, #64	; 0x40
    263c:	0a000072 	beq	280c <_svfprintf_r+0x1924>
    2640:	e59dc048 	ldr	r12, [sp, #72]	; 0x48
    2644:	e1dc20b0 	ldrh	r2, [r12]
    2648:	eafffce8 	b	19f0 <_svfprintf_r+0xb08>
    264c:	e59d4020 	ldr	r4, [sp, #32]
    2650:	e2143040 	ands	r3, r4, #64	; 0x40
    2654:	0a000077 	beq	2838 <_svfprintf_r+0x1950>
    2658:	e59dc048 	ldr	r12, [sp, #72]	; 0x48
    265c:	e1dc20b0 	ldrh	r2, [r12]
    2660:	e3a05000 	mov	r5, #0
    2664:	e1a04002 	mov	r4, r2
    2668:	e28cc004 	add	r12, r12, #4
    266c:	e0522005 	subs	r2, r2, r5
    2670:	13a02001 	movne	r2, #1
    2674:	e58dc048 	str	r12, [sp, #72]	; 0x48
    2678:	e1a03001 	mov	r3, r1
    267c:	eafffbe8 	b	1624 <_svfprintf_r+0x73c>
    2680:	e59d4020 	ldr	r4, [sp, #32]
    2684:	e3140040 	tst	r4, #64	; 0x40
    2688:	0a000055 	beq	27e4 <_svfprintf_r+0x18fc>
    268c:	e59dc048 	ldr	r12, [sp, #72]	; 0x48
    2690:	e1dc30f0 	ldrsh	r3, [r12]
    2694:	eafffbff 	b	1698 <_svfprintf_r+0x7b0>
    2698:	e59d0040 	ldr	r0, [sp, #64]	; 0x40
    269c:	e59d1030 	ldr	r1, [sp, #48]	; 0x30
    26a0:	e28d209c 	add	r2, sp, #156	; 0x9c
    26a4:	eb00103c 	bl	679c <__ssprint_r>
    26a8:	e3500000 	cmp	r0, #0
    26ac:	1afffad2 	bne	11fc <_svfprintf_r+0x314>
    26b0:	e59d50a4 	ldr	r5, [sp, #164]	; 0xa4
    26b4:	e28da0d0 	add	r10, sp, #208	; 0xd0
    26b8:	eafffd98 	b	1d20 <_svfprintf_r+0xe38>
    26bc:	e59d40a0 	ldr	r4, [sp, #160]	; 0xa0
    26c0:	e51f32a4 	ldr	r3, [pc, #-676]	; 2424 <_svfprintf_r+0x153c>
    26c4:	e2844001 	add	r4, r4, #1
    26c8:	e58a3000 	str	r3, [r10]
    26cc:	e2855001 	add	r5, r5, #1
    26d0:	e3540007 	cmp	r4, #7
    26d4:	e3a03001 	mov	r3, #1
    26d8:	e58a3004 	str	r3, [r10, #4]
    26dc:	e58d50a4 	str	r5, [sp, #164]	; 0xa4
    26e0:	e58d40a0 	str	r4, [sp, #160]	; 0xa0
    26e4:	d28aa008 	addle	r10, r10, #8
    26e8:	ca0000ee 	bgt	2aa8 <_svfprintf_r+0x1bc0>
    26ec:	e3570000 	cmp	r7, #0
    26f0:	1a000005 	bne	270c <_svfprintf_r+0x1824>
    26f4:	e59dc04c 	ldr	r12, [sp, #76]	; 0x4c
    26f8:	e35c0000 	cmp	r12, #0
    26fc:	1a000002 	bne	270c <_svfprintf_r+0x1824>
    2700:	e59d4020 	ldr	r4, [sp, #32]
    2704:	e3140001 	tst	r4, #1
    2708:	0afffd2b 	beq	1bbc <_svfprintf_r+0xcd4>
    270c:	e59dc05c 	ldr	r12, [sp, #92]	; 0x5c
    2710:	e59d40a0 	ldr	r4, [sp, #160]	; 0xa0
    2714:	e085500c 	add	r5, r5, r12
    2718:	e59dc058 	ldr	r12, [sp, #88]	; 0x58
    271c:	e2844001 	add	r4, r4, #1
    2720:	e58ac000 	str	r12, [r10]
    2724:	e59dc05c 	ldr	r12, [sp, #92]	; 0x5c
    2728:	e3540007 	cmp	r4, #7
    272c:	e58ac004 	str	r12, [r10, #4]
    2730:	e58d50a4 	str	r5, [sp, #164]	; 0xa4
    2734:	e58d40a0 	str	r4, [sp, #160]	; 0xa0
    2738:	d28aa008 	addle	r10, r10, #8
    273c:	ca0000f9 	bgt	2b28 <_svfprintf_r+0x1c40>
    2740:	e2677000 	rsb	r7, r7, #0
    2744:	e3570000 	cmp	r7, #0
    2748:	da0000f3 	ble	2b1c <_svfprintf_r+0x1c34>
    274c:	e3570010 	cmp	r7, #16
    2750:	e51f6330 	ldr	r6, [pc, #-816]	; 2428 <_svfprintf_r+0x1540>
    2754:	da0000df 	ble	2ad8 <_svfprintf_r+0x1bf0>
    2758:	e58d8038 	str	r8, [sp, #56]	; 0x38
    275c:	e3a09010 	mov	r9, #16
    2760:	e1a08006 	mov	r8, r6
    2764:	e59db040 	ldr	r11, [sp, #64]	; 0x40
    2768:	e59d6030 	ldr	r6, [sp, #48]	; 0x30
    276c:	ea000002 	b	277c <_svfprintf_r+0x1894>
    2770:	e2477010 	sub	r7, r7, #16
    2774:	e3570010 	cmp	r7, #16
    2778:	da0000d4 	ble	2ad0 <_svfprintf_r+0x1be8>
    277c:	e2844001 	add	r4, r4, #1
    2780:	e3540007 	cmp	r4, #7
    2784:	e2855010 	add	r5, r5, #16
    2788:	e88a0300 	stm	r10, {r8, r9}
    278c:	e58d50a4 	str	r5, [sp, #164]	; 0xa4
    2790:	e58d40a0 	str	r4, [sp, #160]	; 0xa0
    2794:	d28aa008 	addle	r10, r10, #8
    2798:	dafffff4 	ble	2770 <_svfprintf_r+0x1888>
    279c:	e1a0000b 	mov	r0, r11
    27a0:	e1a01006 	mov	r1, r6
    27a4:	e28d209c 	add	r2, sp, #156	; 0x9c
    27a8:	eb000ffb 	bl	679c <__ssprint_r>
    27ac:	e3500000 	cmp	r0, #0
    27b0:	1afffa91 	bne	11fc <_svfprintf_r+0x314>
    27b4:	e28d40a0 	add	r4, sp, #160	; 0xa0
    27b8:	e8940030 	ldm	r4, {r4, r5}
    27bc:	e28da0d0 	add	r10, sp, #208	; 0xd0
    27c0:	eaffffea 	b	2770 <_svfprintf_r+0x1888>
    27c4:	e59d4038 	ldr	r4, [sp, #56]	; 0x38
    27c8:	e1c44fc4 	bic	r4, r4, r4, asr #31
    27cc:	e59dc044 	ldr	r12, [sp, #68]	; 0x44
    27d0:	e58d4028 	str	r4, [sp, #40]	; 0x28
    27d4:	e5dd307b 	ldrb	r3, [sp, #123]	; 0x7b
    27d8:	e58d5048 	str	r5, [sp, #72]	; 0x48
    27dc:	e58dc054 	str	r12, [sp, #84]	; 0x54
    27e0:	eafffafd 	b	13dc <_svfprintf_r+0x4f4>
    27e4:	e59d4048 	ldr	r4, [sp, #72]	; 0x48
    27e8:	e59dc048 	ldr	r12, [sp, #72]	; 0x48
    27ec:	e5943000 	ldr	r3, [r4]
    27f0:	e28cc004 	add	r12, r12, #4
    27f4:	e1a05fc3 	asr	r5, r3, #31
    27f8:	e1a04003 	mov	r4, r3
    27fc:	e1a02003 	mov	r2, r3
    2800:	e58dc048 	str	r12, [sp, #72]	; 0x48
    2804:	e1a03005 	mov	r3, r5
    2808:	eafffabd 	b	1304 <_svfprintf_r+0x41c>
    280c:	e59d4048 	ldr	r4, [sp, #72]	; 0x48
    2810:	e59dc048 	ldr	r12, [sp, #72]	; 0x48
    2814:	e5942000 	ldr	r2, [r4]
    2818:	e3a05000 	mov	r5, #0
    281c:	e1a04002 	mov	r4, r2
    2820:	e28cc004 	add	r12, r12, #4
    2824:	e0522005 	subs	r2, r2, r5
    2828:	13a02001 	movne	r2, #1
    282c:	e58dc048 	str	r12, [sp, #72]	; 0x48
    2830:	e3a03001 	mov	r3, #1
    2834:	eafffb7a 	b	1624 <_svfprintf_r+0x73c>
    2838:	e59d4048 	ldr	r4, [sp, #72]	; 0x48
    283c:	e59dc048 	ldr	r12, [sp, #72]	; 0x48
    2840:	e5942000 	ldr	r2, [r4]
    2844:	e3a05000 	mov	r5, #0
    2848:	e1a04002 	mov	r4, r2
    284c:	e28cc004 	add	r12, r12, #4
    2850:	e0522005 	subs	r2, r2, r5
    2854:	13a02001 	movne	r2, #1
    2858:	e58dc048 	str	r12, [sp, #72]	; 0x48
    285c:	eafffb70 	b	1624 <_svfprintf_r+0x73c>
    2860:	e3760001 	cmn	r6, #1
    2864:	e3c7b020 	bic	r11, r7, #32
    2868:	03a06006 	moveq	r6, #6
    286c:	0a000003 	beq	2880 <_svfprintf_r+0x1998>
    2870:	e35b0047 	cmp	r11, #71	; 0x47
    2874:	1a000001 	bne	2880 <_svfprintf_r+0x1998>
    2878:	e3560000 	cmp	r6, #0
    287c:	03a06001 	moveq	r6, #1
    2880:	e59d4020 	ldr	r4, [sp, #32]
    2884:	e3550000 	cmp	r5, #0
    2888:	e3844c01 	orr	r4, r4, #256	; 0x100
    288c:	e58d403c 	str	r4, [sp, #60]	; 0x3c
    2890:	b3a0c02d 	movlt	r12, #45	; 0x2d
    2894:	a3a04000 	movge	r4, #0
    2898:	a58d4044 	strge	r4, [sp, #68]	; 0x44
    289c:	b2855102 	addlt	r5, r5, #-2147483648	; 0x80000000
    28a0:	b58dc044 	strlt	r12, [sp, #68]	; 0x44
    28a4:	e25b3046 	subs	r3, r11, #70	; 0x46
    28a8:	e2734000 	rsbs	r4, r3, #0
    28ac:	e0b44003 	adcs	r4, r4, r3
    28b0:	e3540000 	cmp	r4, #0
    28b4:	0a000069 	beq	2a60 <_svfprintf_r+0x1b78>
    28b8:	e3a01003 	mov	r1, #3
    28bc:	e88d0042 	stm	sp, {r1, r6}
    28c0:	e28d1080 	add	r1, sp, #128	; 0x80
    28c4:	e58d1008 	str	r1, [sp, #8]
    28c8:	e28d1084 	add	r1, sp, #132	; 0x84
    28cc:	e58d100c 	str	r1, [sp, #12]
    28d0:	e28d1088 	add	r1, sp, #136	; 0x88
    28d4:	e1a02009 	mov	r2, r9
    28d8:	e1a03005 	mov	r3, r5
    28dc:	e58d1010 	str	r1, [sp, #16]
    28e0:	e59d0040 	ldr	r0, [sp, #64]	; 0x40
    28e4:	eb000291 	bl	3330 <_dtoa_r>
    28e8:	e35b0047 	cmp	r11, #71	; 0x47
    28ec:	e1a08000 	mov	r8, r0
    28f0:	1a000002 	bne	2900 <_svfprintf_r+0x1a18>
    28f4:	e59dc020 	ldr	r12, [sp, #32]
    28f8:	e31c0001 	tst	r12, #1
    28fc:	0a0000ba 	beq	2bec <_svfprintf_r+0x1d04>
    2900:	e3540000 	cmp	r4, #0
    2904:	e0884006 	add	r4, r8, r6
    2908:	0a000004 	beq	2920 <_svfprintf_r+0x1a38>
    290c:	e5d83000 	ldrb	r3, [r8]
    2910:	e3530030 	cmp	r3, #48	; 0x30
    2914:	0a00011a 	beq	2d84 <_svfprintf_r+0x1e9c>
    2918:	e59d3080 	ldr	r3, [sp, #128]	; 0x80
    291c:	e0844003 	add	r4, r4, r3
    2920:	e1a00009 	mov	r0, r9
    2924:	e1a01005 	mov	r1, r5
    2928:	e3a02000 	mov	r2, #0
    292c:	e3a03000 	mov	r3, #0
    2930:	eb0019bf 	bl	9034 <__aeabi_dcmpeq>
    2934:	e3500000 	cmp	r0, #0
    2938:	1a000008 	bne	2960 <_svfprintf_r+0x1a78>
    293c:	e59d3088 	ldr	r3, [sp, #136]	; 0x88
    2940:	e1540003 	cmp	r4, r3
    2944:	91a04003 	movls	r4, r3
    2948:	9a000004 	bls	2960 <_svfprintf_r+0x1a78>
    294c:	e3a02030 	mov	r2, #48	; 0x30
    2950:	e4c32001 	strb	r2, [r3], #1
    2954:	e1530004 	cmp	r3, r4
    2958:	e58d3088 	str	r3, [sp, #136]	; 0x88
    295c:	1afffffb 	bne	2950 <_svfprintf_r+0x1a68>
    2960:	e0684004 	rsb	r4, r8, r4
    2964:	e35b0047 	cmp	r11, #71	; 0x47
    2968:	e58d404c 	str	r4, [sp, #76]	; 0x4c
    296c:	0a0000a1 	beq	2bf8 <_svfprintf_r+0x1d10>
    2970:	e3570065 	cmp	r7, #101	; 0x65
    2974:	da000136 	ble	2e54 <_svfprintf_r+0x1f6c>
    2978:	e3570066 	cmp	r7, #102	; 0x66
    297c:	e59d3080 	ldr	r3, [sp, #128]	; 0x80
    2980:	0a0000d6 	beq	2ce0 <_svfprintf_r+0x1df8>
    2984:	e59dc04c 	ldr	r12, [sp, #76]	; 0x4c
    2988:	e153000c 	cmp	r3, r12
    298c:	ba0000c9 	blt	2cb8 <_svfprintf_r+0x1dd0>
    2990:	e59d4020 	ldr	r4, [sp, #32]
    2994:	e3140001 	tst	r4, #1
    2998:	12834001 	addne	r4, r3, #1
    299c:	01c3cfc3 	biceq	r12, r3, r3, asr #31
    29a0:	11c4cfc4 	bicne	r12, r4, r4, asr #31
    29a4:	058dc028 	streq	r12, [sp, #40]	; 0x28
    29a8:	058d3038 	streq	r3, [sp, #56]	; 0x38
    29ac:	158d4038 	strne	r4, [sp, #56]	; 0x38
    29b0:	158dc028 	strne	r12, [sp, #40]	; 0x28
    29b4:	e3a07067 	mov	r7, #103	; 0x67
    29b8:	e58d3054 	str	r3, [sp, #84]	; 0x54
    29bc:	e59dc044 	ldr	r12, [sp, #68]	; 0x44
    29c0:	e35c0000 	cmp	r12, #0
    29c4:	0a000084 	beq	2bdc <_svfprintf_r+0x1cf4>
    29c8:	e59d403c 	ldr	r4, [sp, #60]	; 0x3c
    29cc:	e3a0302d 	mov	r3, #45	; 0x2d
    29d0:	e3a0c000 	mov	r12, #0
    29d4:	e5cd307b 	strb	r3, [sp, #123]	; 0x7b
    29d8:	e58d4020 	str	r4, [sp, #32]
    29dc:	e58dc044 	str	r12, [sp, #68]	; 0x44
    29e0:	eafffa7f 	b	13e4 <_svfprintf_r+0x4fc>
    29e4:	e59d0040 	ldr	r0, [sp, #64]	; 0x40
    29e8:	e59d1030 	ldr	r1, [sp, #48]	; 0x30
    29ec:	e28d209c 	add	r2, sp, #156	; 0x9c
    29f0:	eb000f69 	bl	679c <__ssprint_r>
    29f4:	e3500000 	cmp	r0, #0
    29f8:	1afff9ff 	bne	11fc <_svfprintf_r+0x314>
    29fc:	e59d50a4 	ldr	r5, [sp, #164]	; 0xa4
    2a00:	e28da0d0 	add	r10, sp, #208	; 0xd0
    2a04:	eafffcd9 	b	1d70 <_svfprintf_r+0xe88>
    2a08:	e59d4048 	ldr	r4, [sp, #72]	; 0x48
    2a0c:	e59dc020 	ldr	r12, [sp, #32]
    2a10:	e5943000 	ldr	r3, [r4]
    2a14:	e31c0040 	tst	r12, #64	; 0x40
    2a18:	e59dc02c 	ldr	r12, [sp, #44]	; 0x2c
    2a1c:	e2844004 	add	r4, r4, #4
    2a20:	e58d4048 	str	r4, [sp, #72]	; 0x48
    2a24:	11c3c0b0 	strhne	r12, [r3]
    2a28:	0583c000 	streq	r12, [r3]
    2a2c:	eafff951 	b	f78 <_svfprintf_r+0x90>
    2a30:	e59d0040 	ldr	r0, [sp, #64]	; 0x40
    2a34:	e3a01040 	mov	r1, #64	; 0x40
    2a38:	eb000846 	bl	4b58 <_malloc_r>
    2a3c:	e59dc030 	ldr	r12, [sp, #48]	; 0x30
    2a40:	e3500000 	cmp	r0, #0
    2a44:	e58c0000 	str	r0, [r12]
    2a48:	e58c0010 	str	r0, [r12, #16]
    2a4c:	0a0000fa 	beq	2e3c <_svfprintf_r+0x1f54>
    2a50:	e59dc030 	ldr	r12, [sp, #48]	; 0x30
    2a54:	e3a03040 	mov	r3, #64	; 0x40
    2a58:	e58c3014 	str	r3, [r12, #20]
    2a5c:	eafff937 	b	f40 <_svfprintf_r+0x58>
    2a60:	e35b0045 	cmp	r11, #69	; 0x45
    2a64:	1a000091 	bne	2cb0 <_svfprintf_r+0x1dc8>
    2a68:	e2864001 	add	r4, r6, #1
    2a6c:	e3a01002 	mov	r1, #2
    2a70:	e88d0012 	stm	sp, {r1, r4}
    2a74:	e28d1080 	add	r1, sp, #128	; 0x80
    2a78:	e58d1008 	str	r1, [sp, #8]
    2a7c:	e28d1084 	add	r1, sp, #132	; 0x84
    2a80:	e58d100c 	str	r1, [sp, #12]
    2a84:	e28d1088 	add	r1, sp, #136	; 0x88
    2a88:	e1a02009 	mov	r2, r9
    2a8c:	e1a03005 	mov	r3, r5
    2a90:	e58d1010 	str	r1, [sp, #16]
    2a94:	e59d0040 	ldr	r0, [sp, #64]	; 0x40
    2a98:	eb000224 	bl	3330 <_dtoa_r>
    2a9c:	e1a08000 	mov	r8, r0
    2aa0:	e0804004 	add	r4, r0, r4
    2aa4:	eaffff9d 	b	2920 <_svfprintf_r+0x1a38>
    2aa8:	e59d0040 	ldr	r0, [sp, #64]	; 0x40
    2aac:	e59d1030 	ldr	r1, [sp, #48]	; 0x30
    2ab0:	e28d209c 	add	r2, sp, #156	; 0x9c
    2ab4:	eb000f38 	bl	679c <__ssprint_r>
    2ab8:	e3500000 	cmp	r0, #0
    2abc:	1afff9ce 	bne	11fc <_svfprintf_r+0x314>
    2ac0:	e59d7080 	ldr	r7, [sp, #128]	; 0x80
    2ac4:	e59d50a4 	ldr	r5, [sp, #164]	; 0xa4
    2ac8:	e28da0d0 	add	r10, sp, #208	; 0xd0
    2acc:	eaffff06 	b	26ec <_svfprintf_r+0x1804>
    2ad0:	e1a06008 	mov	r6, r8
    2ad4:	e59d8038 	ldr	r8, [sp, #56]	; 0x38
    2ad8:	e2844001 	add	r4, r4, #1
    2adc:	e0855007 	add	r5, r5, r7
    2ae0:	e3540007 	cmp	r4, #7
    2ae4:	e88a00c0 	stm	r10, {r6, r7}
    2ae8:	e58d50a4 	str	r5, [sp, #164]	; 0xa4
    2aec:	e58d40a0 	str	r4, [sp, #160]	; 0xa0
    2af0:	d28aa008 	addle	r10, r10, #8
    2af4:	da000008 	ble	2b1c <_svfprintf_r+0x1c34>
    2af8:	e59d0040 	ldr	r0, [sp, #64]	; 0x40
    2afc:	e59d1030 	ldr	r1, [sp, #48]	; 0x30
    2b00:	e28d209c 	add	r2, sp, #156	; 0x9c
    2b04:	eb000f24 	bl	679c <__ssprint_r>
    2b08:	e3500000 	cmp	r0, #0
    2b0c:	1afff9ba 	bne	11fc <_svfprintf_r+0x314>
    2b10:	e28d40a0 	add	r4, sp, #160	; 0xa0
    2b14:	e8940030 	ldm	r4, {r4, r5}
    2b18:	e28da0d0 	add	r10, sp, #208	; 0xd0
    2b1c:	e2844001 	add	r4, r4, #1
    2b20:	e59dc04c 	ldr	r12, [sp, #76]	; 0x4c
    2b24:	eafffc1d 	b	1ba0 <_svfprintf_r+0xcb8>
    2b28:	e59d0040 	ldr	r0, [sp, #64]	; 0x40
    2b2c:	e59d1030 	ldr	r1, [sp, #48]	; 0x30
    2b30:	e28d209c 	add	r2, sp, #156	; 0x9c
    2b34:	eb000f18 	bl	679c <__ssprint_r>
    2b38:	e3500000 	cmp	r0, #0
    2b3c:	1afff9ae 	bne	11fc <_svfprintf_r+0x314>
    2b40:	e28d40a0 	add	r4, sp, #160	; 0xa0
    2b44:	e59d7080 	ldr	r7, [sp, #128]	; 0x80
    2b48:	e8940030 	ldm	r4, {r4, r5}
    2b4c:	e28da0d0 	add	r10, sp, #208	; 0xd0
    2b50:	eafffefa 	b	2740 <_svfprintf_r+0x1858>
    2b54:	eb000ef8 	bl	673c <strlen>
    2b58:	e58d4044 	str	r4, [sp, #68]	; 0x44
    2b5c:	e58d0038 	str	r0, [sp, #56]	; 0x38
    2b60:	e1c04fc0 	bic	r4, r0, r0, asr #31
    2b64:	eaffff18 	b	27cc <_svfprintf_r+0x18e4>
    2b68:	e59d0040 	ldr	r0, [sp, #64]	; 0x40
    2b6c:	e59d1030 	ldr	r1, [sp, #48]	; 0x30
    2b70:	e28d209c 	add	r2, sp, #156	; 0x9c
    2b74:	eb000f08 	bl	679c <__ssprint_r>
    2b78:	e3500000 	cmp	r0, #0
    2b7c:	1afff99e 	bne	11fc <_svfprintf_r+0x314>
    2b80:	e59d50a4 	ldr	r5, [sp, #164]	; 0xa4
    2b84:	e28da0d0 	add	r10, sp, #208	; 0xd0
    2b88:	eafffd65 	b	2124 <_svfprintf_r+0x123c>
    2b8c:	e59d0040 	ldr	r0, [sp, #64]	; 0x40
    2b90:	e59d1030 	ldr	r1, [sp, #48]	; 0x30
    2b94:	e28d209c 	add	r2, sp, #156	; 0x9c
    2b98:	eb000eff 	bl	679c <__ssprint_r>
    2b9c:	e3500000 	cmp	r0, #0
    2ba0:	1afff995 	bne	11fc <_svfprintf_r+0x314>
    2ba4:	e59d3080 	ldr	r3, [sp, #128]	; 0x80
    2ba8:	e59dc04c 	ldr	r12, [sp, #76]	; 0x4c
    2bac:	e59d50a4 	ldr	r5, [sp, #164]	; 0xa4
    2bb0:	e063300c 	rsb	r3, r3, r12
    2bb4:	e28da0d0 	add	r10, sp, #208	; 0xd0
    2bb8:	eafffe06 	b	23d8 <_svfprintf_r+0x14f0>
    2bbc:	e3560006 	cmp	r6, #6
    2bc0:	23a06006 	movcs	r6, #6
    2bc4:	e1c64fc6 	bic	r4, r6, r6, asr #31
    2bc8:	e58d6038 	str	r6, [sp, #56]	; 0x38
    2bcc:	e58d4028 	str	r4, [sp, #40]	; 0x28
    2bd0:	e58d5048 	str	r5, [sp, #72]	; 0x48
    2bd4:	e51f87b0 	ldr	r8, [pc, #-1968]	; 242c <_svfprintf_r+0x1544>
    2bd8:	eafffaa1 	b	1664 <_svfprintf_r+0x77c>
    2bdc:	e59dc03c 	ldr	r12, [sp, #60]	; 0x3c
    2be0:	e5dd307b 	ldrb	r3, [sp, #123]	; 0x7b
    2be4:	e58dc020 	str	r12, [sp, #32]
    2be8:	eafff9fb 	b	13dc <_svfprintf_r+0x4f4>
    2bec:	e59d3088 	ldr	r3, [sp, #136]	; 0x88
    2bf0:	e0603003 	rsb	r3, r0, r3
    2bf4:	e58d304c 	str	r3, [sp, #76]	; 0x4c
    2bf8:	e59d1080 	ldr	r1, [sp, #128]	; 0x80
    2bfc:	e3710003 	cmn	r1, #3
    2c00:	e1a03001 	mov	r3, r1
    2c04:	ba000001 	blt	2c10 <_svfprintf_r+0x1d28>
    2c08:	e1560001 	cmp	r6, r1
    2c0c:	aaffff5c 	bge	2984 <_svfprintf_r+0x1a9c>
    2c10:	e2477002 	sub	r7, r7, #2
    2c14:	e2411001 	sub	r1, r1, #1
    2c18:	e3510000 	cmp	r1, #0
    2c1c:	e58d1080 	str	r1, [sp, #128]	; 0x80
    2c20:	b2611000 	rsblt	r1, r1, #0
    2c24:	b3a0302d 	movlt	r3, #45	; 0x2d
    2c28:	a3a0302b 	movge	r3, #43	; 0x2b
    2c2c:	e3510009 	cmp	r1, #9
    2c30:	e5cd708c 	strb	r7, [sp, #140]	; 0x8c
    2c34:	e5cd308d 	strb	r3, [sp, #141]	; 0x8d
    2c38:	ca000033 	bgt	2d0c <_svfprintf_r+0x1e24>
    2c3c:	e2811030 	add	r1, r1, #48	; 0x30
    2c40:	e3a03030 	mov	r3, #48	; 0x30
    2c44:	e5cd108f 	strb	r1, [sp, #143]	; 0x8f
    2c48:	e5cd308e 	strb	r3, [sp, #142]	; 0x8e
    2c4c:	e28d3090 	add	r3, sp, #144	; 0x90
    2c50:	e59d404c 	ldr	r4, [sp, #76]	; 0x4c
    2c54:	e28d208c 	add	r2, sp, #140	; 0x8c
    2c58:	e0622003 	rsb	r2, r2, r3
    2c5c:	e084c002 	add	r12, r4, r2
    2c60:	e3540001 	cmp	r4, #1
    2c64:	e58d2068 	str	r2, [sp, #104]	; 0x68
    2c68:	e58dc038 	str	r12, [sp, #56]	; 0x38
    2c6c:	da000066 	ble	2e0c <_svfprintf_r+0x1f24>
    2c70:	e59d3038 	ldr	r3, [sp, #56]	; 0x38
    2c74:	e2833001 	add	r3, r3, #1
    2c78:	e1c34fc3 	bic	r4, r3, r3, asr #31
    2c7c:	e3a0c000 	mov	r12, #0
    2c80:	e58d3038 	str	r3, [sp, #56]	; 0x38
    2c84:	e58d4028 	str	r4, [sp, #40]	; 0x28
    2c88:	e58dc054 	str	r12, [sp, #84]	; 0x54
    2c8c:	eaffff4a 	b	29bc <_svfprintf_r+0x1ad4>
    2c90:	e1c6cfc6 	bic	r12, r6, r6, asr #31
    2c94:	e58d0044 	str	r0, [sp, #68]	; 0x44
    2c98:	e58dc028 	str	r12, [sp, #40]	; 0x28
    2c9c:	e5dd307b 	ldrb	r3, [sp, #123]	; 0x7b
    2ca0:	e58d5048 	str	r5, [sp, #72]	; 0x48
    2ca4:	e58d6038 	str	r6, [sp, #56]	; 0x38
    2ca8:	e58d0054 	str	r0, [sp, #84]	; 0x54
    2cac:	eafff9ca 	b	13dc <_svfprintf_r+0x4f4>
    2cb0:	e3a01002 	mov	r1, #2
    2cb4:	eaffff00 	b	28bc <_svfprintf_r+0x19d4>
    2cb8:	e3530000 	cmp	r3, #0
    2cbc:	e59d404c 	ldr	r4, [sp, #76]	; 0x4c
    2cc0:	d2632002 	rsble	r2, r3, #2
    2cc4:	c3a02001 	movgt	r2, #1
    2cc8:	e0822004 	add	r2, r2, r4
    2ccc:	e1c2cfc2 	bic	r12, r2, r2, asr #31
    2cd0:	e58d2038 	str	r2, [sp, #56]	; 0x38
    2cd4:	e58dc028 	str	r12, [sp, #40]	; 0x28
    2cd8:	e3a07067 	mov	r7, #103	; 0x67
    2cdc:	eaffff35 	b	29b8 <_svfprintf_r+0x1ad0>
    2ce0:	e3530000 	cmp	r3, #0
    2ce4:	da00003f 	ble	2de8 <_svfprintf_r+0x1f00>
    2ce8:	e3560000 	cmp	r6, #0
    2cec:	1a00002e 	bne	2dac <_svfprintf_r+0x1ec4>
    2cf0:	e59d4020 	ldr	r4, [sp, #32]
    2cf4:	e3140001 	tst	r4, #1
    2cf8:	1a00002b 	bne	2dac <_svfprintf_r+0x1ec4>
    2cfc:	e1c3cfc3 	bic	r12, r3, r3, asr #31
    2d00:	e58dc028 	str	r12, [sp, #40]	; 0x28
    2d04:	e58d3038 	str	r3, [sp, #56]	; 0x38
    2d08:	eaffff2a 	b	29b8 <_svfprintf_r+0x1ad0>
    2d0c:	e28d309a 	add	r3, sp, #154	; 0x9a
    2d10:	e51f28e8 	ldr	r2, [pc, #-2280]	; 2430 <_svfprintf_r+0x1548>
    2d14:	e0c04192 	smull	r4, r0, r2, r1
    2d18:	e1a02fc1 	asr	r2, r1, #31
    2d1c:	e0622140 	rsb	r2, r2, r0, asr #2
    2d20:	e0820102 	add	r0, r2, r2, lsl #2
    2d24:	e0410080 	sub	r0, r1, r0, lsl #1
    2d28:	e1a01002 	mov	r1, r2
    2d2c:	e3510009 	cmp	r1, #9
    2d30:	e1a02003 	mov	r2, r3
    2d34:	e2803030 	add	r3, r0, #48	; 0x30
    2d38:	e5c23000 	strb	r3, [r2]
    2d3c:	e2423001 	sub	r3, r2, #1
    2d40:	cafffff2 	bgt	2d10 <_svfprintf_r+0x1e28>
    2d44:	e28dc09b 	add	r12, sp, #155	; 0x9b
    2d48:	e2811030 	add	r1, r1, #48	; 0x30
    2d4c:	e15c0003 	cmp	r12, r3
    2d50:	e5421001 	strb	r1, [r2, #-1]
    2d54:	9a000040 	bls	2e5c <_svfprintf_r+0x1f74>
    2d58:	e28d008d 	add	r0, sp, #141	; 0x8d
    2d5c:	e1a03002 	mov	r3, r2
    2d60:	ea000000 	b	2d68 <_svfprintf_r+0x1e80>
    2d64:	e4d31001 	ldrb	r1, [r3], #1
    2d68:	e153000c 	cmp	r3, r12
    2d6c:	e5e01001 	strb	r1, [r0, #1]!
    2d70:	1afffffb 	bne	2d64 <_svfprintf_r+0x1e7c>
    2d74:	e28dce11 	add	r12, sp, #272	; 0x110
    2d78:	e062308c 	rsb	r3, r2, r12, lsl #1
    2d7c:	e24330f6 	sub	r3, r3, #246	; 0xf6
    2d80:	eaffffb2 	b	2c50 <_svfprintf_r+0x1d68>
    2d84:	e3a03000 	mov	r3, #0
    2d88:	e1a00009 	mov	r0, r9
    2d8c:	e1a01005 	mov	r1, r5
    2d90:	e3a02000 	mov	r2, #0
    2d94:	eb0018a6 	bl	9034 <__aeabi_dcmpeq>
    2d98:	e3500000 	cmp	r0, #0
    2d9c:	02663001 	rsbeq	r3, r6, #1
    2da0:	058d3080 	streq	r3, [sp, #128]	; 0x80
    2da4:	0afffedc 	beq	291c <_svfprintf_r+0x1a34>
    2da8:	eafffeda 	b	2918 <_svfprintf_r+0x1a30>
    2dac:	e2866001 	add	r6, r6, #1
    2db0:	e0836006 	add	r6, r3, r6
    2db4:	e1c64fc6 	bic	r4, r6, r6, asr #31
    2db8:	e58d6038 	str	r6, [sp, #56]	; 0x38
    2dbc:	e58d4028 	str	r4, [sp, #40]	; 0x28
    2dc0:	eafffefc 	b	29b8 <_svfprintf_r+0x1ad0>
    2dc4:	e59d4048 	ldr	r4, [sp, #72]	; 0x48
    2dc8:	e5946000 	ldr	r6, [r4]
    2dcc:	e2840004 	add	r0, r4, #4
    2dd0:	e3560000 	cmp	r6, #0
    2dd4:	e5d37001 	ldrb	r7, [r3, #1]
    2dd8:	e58d0048 	str	r0, [sp, #72]	; 0x48
    2ddc:	e1a0300c 	mov	r3, r12
    2de0:	b3e06000 	mvnlt	r6, #0
    2de4:	eafff88f 	b	1028 <_svfprintf_r+0x140>
    2de8:	e3560000 	cmp	r6, #0
    2dec:	1a00000d 	bne	2e28 <_svfprintf_r+0x1f40>
    2df0:	e59dc020 	ldr	r12, [sp, #32]
    2df4:	e31c0001 	tst	r12, #1
    2df8:	1a00000a 	bne	2e28 <_svfprintf_r+0x1f40>
    2dfc:	e3a04001 	mov	r4, #1
    2e00:	e58d4028 	str	r4, [sp, #40]	; 0x28
    2e04:	e58d4038 	str	r4, [sp, #56]	; 0x38
    2e08:	eafffeea 	b	29b8 <_svfprintf_r+0x1ad0>
    2e0c:	e59d4020 	ldr	r4, [sp, #32]
    2e10:	e2143001 	ands	r3, r4, #1
    2e14:	1affff95 	bne	2c70 <_svfprintf_r+0x1d88>
    2e18:	e1cccfcc 	bic	r12, r12, r12, asr #31
    2e1c:	e58dc028 	str	r12, [sp, #40]	; 0x28
    2e20:	e58d3054 	str	r3, [sp, #84]	; 0x54
    2e24:	eafffee4 	b	29bc <_svfprintf_r+0x1ad4>
    2e28:	e2866002 	add	r6, r6, #2
    2e2c:	e1c64fc6 	bic	r4, r6, r6, asr #31
    2e30:	e58d6038 	str	r6, [sp, #56]	; 0x38
    2e34:	e58d4028 	str	r4, [sp, #40]	; 0x28
    2e38:	eafffede 	b	29b8 <_svfprintf_r+0x1ad0>
    2e3c:	e59d4040 	ldr	r4, [sp, #64]	; 0x40
    2e40:	e3a0300c 	mov	r3, #12
    2e44:	e3e0c000 	mvn	r12, #0
    2e48:	e5843000 	str	r3, [r4]
    2e4c:	e58dc02c 	str	r12, [sp, #44]	; 0x2c
    2e50:	eafff8ef 	b	1214 <_svfprintf_r+0x32c>
    2e54:	e59d1080 	ldr	r1, [sp, #128]	; 0x80
    2e58:	eaffff6d 	b	2c14 <_svfprintf_r+0x1d2c>
    2e5c:	e28d308e 	add	r3, sp, #142	; 0x8e
    2e60:	eaffff7a 	b	2c50 <_svfprintf_r+0x1d68>

00002e64 <time>:
    2e64:	e92d4010 	push	{r4, lr}
    2e68:	e59f303c 	ldr	r3, [pc, #60]	; 2eac <time+0x48>
    2e6c:	e24dd008 	sub	sp, sp, #8
    2e70:	e1a04000 	mov	r4, r0
    2e74:	e1a0100d 	mov	r1, sp
    2e78:	e5930000 	ldr	r0, [r3]
    2e7c:	e3a02000 	mov	r2, #0
    2e80:	eb0006ed 	bl	4a3c <_gettimeofday_r>
    2e84:	e3500000 	cmp	r0, #0
    2e88:	ba000005 	blt	2ea4 <time+0x40>
    2e8c:	e59d0000 	ldr	r0, [sp]
    2e90:	e3540000 	cmp	r4, #0
    2e94:	15840000 	strne	r0, [r4]
    2e98:	e28dd008 	add	sp, sp, #8
    2e9c:	e8bd4010 	pop	{r4, lr}
    2ea0:	e12fff1e 	bx	lr
    2ea4:	e3e00000 	mvn	r0, #0
    2ea8:	eafffffa 	b	2e98 <time+0x34>
    2eac:	0000a060 	.word	0x0000a060

00002eb0 <__tz_lock>:
    2eb0:	e12fff1e 	bx	lr

00002eb4 <__tz_unlock>:
    2eb4:	e12fff1e 	bx	lr

00002eb8 <__register_exitproc>:
    2eb8:	e59fc0e4 	ldr	r12, [pc, #228]	; 2fa4 <__register_exitproc+0xec>
    2ebc:	e92d41f0 	push	{r4, r5, r6, r7, r8, lr}
    2ec0:	e59c4000 	ldr	r4, [r12]
    2ec4:	e594c148 	ldr	r12, [r4, #328]	; 0x148
    2ec8:	e35c0000 	cmp	r12, #0
    2ecc:	0284cf53 	addeq	r12, r4, #332	; 0x14c
    2ed0:	e59c5004 	ldr	r5, [r12, #4]
    2ed4:	0584c148 	streq	r12, [r4, #328]	; 0x148
    2ed8:	e355001f 	cmp	r5, #31
    2edc:	e24dd010 	sub	sp, sp, #16
    2ee0:	e1a06000 	mov	r6, r0
    2ee4:	da000015 	ble	2f40 <__register_exitproc+0x88>
    2ee8:	e59f00b8 	ldr	r0, [pc, #184]	; 2fa8 <__register_exitproc+0xf0>
    2eec:	e3500000 	cmp	r0, #0
    2ef0:	1a000001 	bne	2efc <__register_exitproc+0x44>
    2ef4:	e3e00000 	mvn	r0, #0
    2ef8:	ea000018 	b	2f60 <__register_exitproc+0xa8>
    2efc:	e3a00e19 	mov	r0, #400	; 0x190
    2f00:	e58d100c 	str	r1, [sp, #12]
    2f04:	e58d2008 	str	r2, [sp, #8]
    2f08:	e58d3004 	str	r3, [sp, #4]
    2f0c:	e320f000 	nop	{0}
    2f10:	e250c000 	subs	r12, r0, #0
    2f14:	e59d100c 	ldr	r1, [sp, #12]
    2f18:	e59d2008 	ldr	r2, [sp, #8]
    2f1c:	e59d3004 	ldr	r3, [sp, #4]
    2f20:	0afffff3 	beq	2ef4 <__register_exitproc+0x3c>
    2f24:	e5945148 	ldr	r5, [r4, #328]	; 0x148
    2f28:	e3a00000 	mov	r0, #0
    2f2c:	e58c0004 	str	r0, [r12, #4]
    2f30:	e58c5000 	str	r5, [r12]
    2f34:	e584c148 	str	r12, [r4, #328]	; 0x148
    2f38:	e58c0188 	str	r0, [r12, #392]	; 0x188
    2f3c:	e58c018c 	str	r0, [r12, #396]	; 0x18c
    2f40:	e3560000 	cmp	r6, #0
    2f44:	e59c4004 	ldr	r4, [r12, #4]
    2f48:	1a000007 	bne	2f6c <__register_exitproc+0xb4>
    2f4c:	e2843002 	add	r3, r4, #2
    2f50:	e2844001 	add	r4, r4, #1
    2f54:	e78c1103 	str	r1, [r12, r3, lsl #2]
    2f58:	e58c4004 	str	r4, [r12, #4]
    2f5c:	e3a00000 	mov	r0, #0
    2f60:	e28dd010 	add	sp, sp, #16
    2f64:	e8bd41f0 	pop	{r4, r5, r6, r7, r8, lr}
    2f68:	e12fff1e 	bx	lr
    2f6c:	e3a00001 	mov	r0, #1
    2f70:	e1a00410 	lsl	r0, r0, r4
    2f74:	e08c8104 	add	r8, r12, r4, lsl #2
    2f78:	e3560002 	cmp	r6, #2
    2f7c:	e59c7188 	ldr	r7, [r12, #392]	; 0x188
    2f80:	e5883108 	str	r3, [r8, #264]	; 0x108
    2f84:	059c318c 	ldreq	r3, [r12, #396]	; 0x18c
    2f88:	e1877000 	orr	r7, r7, r0
    2f8c:	01830000 	orreq	r0, r3, r0
    2f90:	e1a05008 	mov	r5, r8
    2f94:	e5882088 	str	r2, [r8, #136]	; 0x88
    2f98:	e58c7188 	str	r7, [r12, #392]	; 0x188
    2f9c:	058c018c 	streq	r0, [r12, #396]	; 0x18c
    2fa0:	eaffffe9 	b	2f4c <__register_exitproc+0x94>
    2fa4:	00009dc8 	.word	0x00009dc8
    2fa8:	00000000 	.word	0x00000000

00002fac <__call_exitprocs>:
    2fac:	e92d4ff0 	push	{r4, r5, r6, r7, r8, r9, r10, r11, lr}
    2fb0:	e59f3168 	ldr	r3, [pc, #360]	; 3120 <__call_exitprocs+0x174>
    2fb4:	e5933000 	ldr	r3, [r3]
    2fb8:	e24dd014 	sub	sp, sp, #20
    2fbc:	e58d3004 	str	r3, [sp, #4]
    2fc0:	e2833f52 	add	r3, r3, #328	; 0x148
    2fc4:	e58d0008 	str	r0, [sp, #8]
    2fc8:	e58d300c 	str	r3, [sp, #12]
    2fcc:	e1a07001 	mov	r7, r1
    2fd0:	e3a08001 	mov	r8, #1
    2fd4:	e59d3004 	ldr	r3, [sp, #4]
    2fd8:	e5936148 	ldr	r6, [r3, #328]	; 0x148
    2fdc:	e3560000 	cmp	r6, #0
    2fe0:	e59db00c 	ldr	r11, [sp, #12]
    2fe4:	0a000033 	beq	30b8 <__call_exitprocs+0x10c>
    2fe8:	e5965004 	ldr	r5, [r6, #4]
    2fec:	e2554001 	subs	r4, r5, #1
    2ff0:	5286a088 	addpl	r10, r6, #136	; 0x88
    2ff4:	5285501f 	addpl	r5, r5, #31
    2ff8:	508a5105 	addpl	r5, r10, r5, lsl #2
    2ffc:	5a000007 	bpl	3020 <__call_exitprocs+0x74>
    3000:	ea000029 	b	30ac <__call_exitprocs+0x100>
    3004:	e5953000 	ldr	r3, [r5]
    3008:	e1530007 	cmp	r3, r7
    300c:	0a000005 	beq	3028 <__call_exitprocs+0x7c>
    3010:	e2444001 	sub	r4, r4, #1
    3014:	e3740001 	cmn	r4, #1
    3018:	e2455004 	sub	r5, r5, #4
    301c:	0a000022 	beq	30ac <__call_exitprocs+0x100>
    3020:	e3570000 	cmp	r7, #0
    3024:	1afffff6 	bne	3004 <__call_exitprocs+0x58>
    3028:	e5963004 	ldr	r3, [r6, #4]
    302c:	e06a2005 	rsb	r2, r10, r5
    3030:	e2433001 	sub	r3, r3, #1
    3034:	e0862002 	add	r2, r6, r2
    3038:	e1530004 	cmp	r3, r4
    303c:	e5123078 	ldr	r3, [r2, #-120]	; 0xffffff88
    3040:	13a01000 	movne	r1, #0
    3044:	05864004 	streq	r4, [r6, #4]
    3048:	15021078 	strne	r1, [r2, #-120]	; 0xffffff88
    304c:	e3530000 	cmp	r3, #0
    3050:	0affffee 	beq	3010 <__call_exitprocs+0x64>
    3054:	e1a02418 	lsl	r2, r8, r4
    3058:	e5961188 	ldr	r1, [r6, #392]	; 0x188
    305c:	e1120001 	tst	r2, r1
    3060:	e5969004 	ldr	r9, [r6, #4]
    3064:	0a000016 	beq	30c4 <__call_exitprocs+0x118>
    3068:	e596118c 	ldr	r1, [r6, #396]	; 0x18c
    306c:	e1120001 	tst	r2, r1
    3070:	1a000016 	bne	30d0 <__call_exitprocs+0x124>
    3074:	e59d0008 	ldr	r0, [sp, #8]
    3078:	e5151080 	ldr	r1, [r5, #-128]	; 0xffffff80
    307c:	e1a0e00f 	mov	lr, pc
    3080:	e12fff13 	bx	r3
    3084:	e5963004 	ldr	r3, [r6, #4]
    3088:	e1530009 	cmp	r3, r9
    308c:	1affffd0 	bne	2fd4 <__call_exitprocs+0x28>
    3090:	e59b3000 	ldr	r3, [r11]
    3094:	e1530006 	cmp	r3, r6
    3098:	1affffcd 	bne	2fd4 <__call_exitprocs+0x28>
    309c:	e2444001 	sub	r4, r4, #1
    30a0:	e3740001 	cmn	r4, #1
    30a4:	e2455004 	sub	r5, r5, #4
    30a8:	1affffdc 	bne	3020 <__call_exitprocs+0x74>
    30ac:	e59f1070 	ldr	r1, [pc, #112]	; 3124 <__call_exitprocs+0x178>
    30b0:	e3510000 	cmp	r1, #0
    30b4:	1a000009 	bne	30e0 <__call_exitprocs+0x134>
    30b8:	e28dd014 	add	sp, sp, #20
    30bc:	e8bd4ff0 	pop	{r4, r5, r6, r7, r8, r9, r10, r11, lr}
    30c0:	e12fff1e 	bx	lr
    30c4:	e1a0e00f 	mov	lr, pc
    30c8:	e12fff13 	bx	r3
    30cc:	eaffffec 	b	3084 <__call_exitprocs+0xd8>
    30d0:	e5150080 	ldr	r0, [r5, #-128]	; 0xffffff80
    30d4:	e1a0e00f 	mov	lr, pc
    30d8:	e12fff13 	bx	r3
    30dc:	eaffffe8 	b	3084 <__call_exitprocs+0xd8>
    30e0:	e5963004 	ldr	r3, [r6, #4]
    30e4:	e3530000 	cmp	r3, #0
    30e8:	e5963000 	ldr	r3, [r6]
    30ec:	1a000008 	bne	3114 <__call_exitprocs+0x168>
    30f0:	e3530000 	cmp	r3, #0
    30f4:	0a000006 	beq	3114 <__call_exitprocs+0x168>
    30f8:	e1a00006 	mov	r0, r6
    30fc:	e58b3000 	str	r3, [r11]
    3100:	e320f000 	nop	{0}
    3104:	e59b6000 	ldr	r6, [r11]
    3108:	e3560000 	cmp	r6, #0
    310c:	1affffb5 	bne	2fe8 <__call_exitprocs+0x3c>
    3110:	eaffffe8 	b	30b8 <__call_exitprocs+0x10c>
    3114:	e1a0b006 	mov	r11, r6
    3118:	e1a06003 	mov	r6, r3
    311c:	eafffff9 	b	3108 <__call_exitprocs+0x15c>
    3120:	00009dc8 	.word	0x00009dc8
    3124:	00000000 	.word	0x00000000

00003128 <register_fini>:
    3128:	e92d4008 	push	{r3, lr}
    312c:	e59f3010 	ldr	r3, [pc, #16]	; 3144 <register_fini+0x1c>
    3130:	e3530000 	cmp	r3, #0
    3134:	159f000c 	ldrne	r0, [pc, #12]	; 3148 <register_fini+0x20>
    3138:	1bfff53c 	blne	630 <atexit>
    313c:	e8bd4008 	pop	{r3, lr}
    3140:	e12fff1e 	bx	lr
    3144:	0000a028 	.word	0x0000a028
    3148:	000049f8 	.word	0x000049f8
    314c:	00000000 	.word	0x00000000

00003150 <quorem>:
    3150:	e92d4ff8 	push	{r3, r4, r5, r6, r7, r8, r9, r10, r11, lr}
    3154:	e5903010 	ldr	r3, [r0, #16]
    3158:	e5916010 	ldr	r6, [r1, #16]
    315c:	e1560003 	cmp	r6, r3
    3160:	e1a0a000 	mov	r10, r0
    3164:	e1a05001 	mov	r5, r1
    3168:	c3a00000 	movgt	r0, #0
    316c:	ca00006d 	bgt	3328 <quorem+0x1d8>
    3170:	e2863003 	add	r3, r6, #3
    3174:	e1a03103 	lsl	r3, r3, #2
    3178:	e0819003 	add	r9, r1, r3
    317c:	e5991004 	ldr	r1, [r9, #4]
    3180:	e08a3003 	add	r3, r10, r3
    3184:	e5930004 	ldr	r0, [r3, #4]
    3188:	e2811001 	add	r1, r1, #1
    318c:	eb001501 	bl	8598 <__aeabi_uidiv>
    3190:	e2507000 	subs	r7, r0, #0
    3194:	e2466001 	sub	r6, r6, #1
    3198:	e2899004 	add	r9, r9, #4
    319c:	e2854014 	add	r4, r5, #20
    31a0:	e28a8014 	add	r8, r10, #20
    31a4:	0a000030 	beq	326c <quorem+0x11c>
    31a8:	e3a0c000 	mov	r12, #0
    31ac:	e1a02008 	mov	r2, r8
    31b0:	e1a03004 	mov	r3, r4
    31b4:	e1a0000c 	mov	r0, r12
    31b8:	e493e004 	ldr	lr, [r3], #4
    31bc:	e1a0b80e 	lsl	r11, lr, #16
    31c0:	e1a0b82b 	lsr	r11, r11, #16
    31c4:	e1a0e82e 	lsr	lr, lr, #16
    31c8:	e02bcb97 	mla	r11, r7, r11, r12
    31cc:	e00c0e97 	mul	r12, r7, lr
    31d0:	e592e000 	ldr	lr, [r2]
    31d4:	e08cc82b 	add	r12, r12, r11, lsr #16
    31d8:	e1a0180e 	lsl	r1, lr, #16
    31dc:	e0801821 	add	r1, r0, r1, lsr #16
    31e0:	e1a0b80b 	lsl	r11, r11, #16
    31e4:	e1a0080c 	lsl	r0, r12, #16
    31e8:	e041182b 	sub	r1, r1, r11, lsr #16
    31ec:	e1a00820 	lsr	r0, r0, #16
    31f0:	e060082e 	rsb	r0, r0, lr, lsr #16
    31f4:	e1a0b801 	lsl	r11, r1, #16
    31f8:	e0800841 	add	r0, r0, r1, asr #16
    31fc:	e1a0182b 	lsr	r1, r11, #16
    3200:	e1811800 	orr	r1, r1, r0, lsl #16
    3204:	e1590003 	cmp	r9, r3
    3208:	e1a0c82c 	lsr	r12, r12, #16
    320c:	e1a00840 	asr	r0, r0, #16
    3210:	e4821004 	str	r1, [r2], #4
    3214:	2affffe7 	bcs	31b8 <quorem+0x68>
    3218:	e2863004 	add	r3, r6, #4
    321c:	e08a3103 	add	r3, r10, r3, lsl #2
    3220:	e5932004 	ldr	r2, [r3, #4]
    3224:	e3520000 	cmp	r2, #0
    3228:	1a00000f 	bne	326c <quorem+0x11c>
    322c:	e1580003 	cmp	r8, r3
    3230:	e2832004 	add	r2, r3, #4
    3234:	2a00000b 	bcs	3268 <quorem+0x118>
    3238:	e5122004 	ldr	r2, [r2, #-4]
    323c:	e3520000 	cmp	r2, #0
    3240:	1a000008 	bne	3268 <quorem+0x118>
    3244:	e2433004 	sub	r3, r3, #4
    3248:	ea000003 	b	325c <quorem+0x10c>
    324c:	e5932000 	ldr	r2, [r3]
    3250:	e3520000 	cmp	r2, #0
    3254:	e2433004 	sub	r3, r3, #4
    3258:	1a000002 	bne	3268 <quorem+0x118>
    325c:	e1580003 	cmp	r8, r3
    3260:	e2466001 	sub	r6, r6, #1
    3264:	3afffff8 	bcc	324c <quorem+0xfc>
    3268:	e58a6010 	str	r6, [r10, #16]
    326c:	e1a0000a 	mov	r0, r10
    3270:	e1a01005 	mov	r1, r5
    3274:	eb000aa0 	bl	5cfc <__mcmp>
    3278:	e3500000 	cmp	r0, #0
    327c:	ba000028 	blt	3324 <quorem+0x1d4>
    3280:	e2877001 	add	r7, r7, #1
    3284:	e1a03008 	mov	r3, r8
    3288:	e3a02000 	mov	r2, #0
    328c:	e4945004 	ldr	r5, [r4], #4
    3290:	e593c000 	ldr	r12, [r3]
    3294:	e1a01805 	lsl	r1, r5, #16
    3298:	e1a0080c 	lsl	r0, r12, #16
    329c:	e1a01821 	lsr	r1, r1, #16
    32a0:	e0611820 	rsb	r1, r1, r0, lsr #16
    32a4:	e0811002 	add	r1, r1, r2
    32a8:	e1a02825 	lsr	r2, r5, #16
    32ac:	e062282c 	rsb	r2, r2, r12, lsr #16
    32b0:	e1a00801 	lsl	r0, r1, #16
    32b4:	e0822841 	add	r2, r2, r1, asr #16
    32b8:	e1a01820 	lsr	r1, r0, #16
    32bc:	e1811802 	orr	r1, r1, r2, lsl #16
    32c0:	e1590004 	cmp	r9, r4
    32c4:	e1a02842 	asr	r2, r2, #16
    32c8:	e4831004 	str	r1, [r3], #4
    32cc:	2affffee 	bcs	328c <quorem+0x13c>
    32d0:	e2863004 	add	r3, r6, #4
    32d4:	e08a3103 	add	r3, r10, r3, lsl #2
    32d8:	e5932004 	ldr	r2, [r3, #4]
    32dc:	e3520000 	cmp	r2, #0
    32e0:	1a00000f 	bne	3324 <quorem+0x1d4>
    32e4:	e1580003 	cmp	r8, r3
    32e8:	e2832004 	add	r2, r3, #4
    32ec:	2a00000b 	bcs	3320 <quorem+0x1d0>
    32f0:	e5122004 	ldr	r2, [r2, #-4]
    32f4:	e3520000 	cmp	r2, #0
    32f8:	1a000008 	bne	3320 <quorem+0x1d0>
    32fc:	e2433004 	sub	r3, r3, #4
    3300:	ea000003 	b	3314 <quorem+0x1c4>
    3304:	e5932000 	ldr	r2, [r3]
    3308:	e3520000 	cmp	r2, #0
    330c:	e2433004 	sub	r3, r3, #4
    3310:	1a000002 	bne	3320 <quorem+0x1d0>
    3314:	e1580003 	cmp	r8, r3
    3318:	e2466001 	sub	r6, r6, #1
    331c:	3afffff8 	bcc	3304 <quorem+0x1b4>
    3320:	e58a6010 	str	r6, [r10, #16]
    3324:	e1a00007 	mov	r0, r7
    3328:	e8bd4ff8 	pop	{r3, r4, r5, r6, r7, r8, r9, r10, r11, lr}
    332c:	e12fff1e 	bx	lr

00003330 <_dtoa_r>:
    3330:	e92d4ff0 	push	{r4, r5, r6, r7, r8, r9, r10, r11, lr}
    3334:	e5901040 	ldr	r1, [r0, #64]	; 0x40
    3338:	e24dd07c 	sub	sp, sp, #124	; 0x7c
    333c:	e3510000 	cmp	r1, #0
    3340:	e1a06000 	mov	r6, r0
    3344:	e59d40ac 	ldr	r4, [sp, #172]	; 0xac
    3348:	e58d2010 	str	r2, [sp, #16]
    334c:	e58d3014 	str	r3, [sp, #20]
    3350:	0a000007 	beq	3374 <_dtoa_r+0x44>
    3354:	e5903044 	ldr	r3, [r0, #68]	; 0x44
    3358:	e3a02001 	mov	r2, #1
    335c:	e1a02312 	lsl	r2, r2, r3
    3360:	e5813004 	str	r3, [r1, #4]
    3364:	e5812008 	str	r2, [r1, #8]
    3368:	eb0008b0 	bl	5630 <_Bfree>
    336c:	e3a03000 	mov	r3, #0
    3370:	e5863040 	str	r3, [r6, #64]	; 0x40
    3374:	e59da014 	ldr	r10, [sp, #20]
    3378:	e35a0000 	cmp	r10, #0
    337c:	b3a03001 	movlt	r3, #1
    3380:	a3a03000 	movge	r3, #0
    3384:	b5843000 	strlt	r3, [r4]
    3388:	a5843000 	strge	r3, [r4]
    338c:	e59f3570 	ldr	r3, [pc, #1392]	; 3904 <_dtoa_r+0x5d4>
    3390:	b3caa102 	biclt	r10, r10, #-2147483648	; 0x80000000
    3394:	e59f2568 	ldr	r2, [pc, #1384]	; 3904 <_dtoa_r+0x5d4>
    3398:	b1a0100a 	movlt	r1, r10
    339c:	e00a3003 	and	r3, r10, r3
    33a0:	b58d1014 	strlt	r1, [sp, #20]
    33a4:	e1530002 	cmp	r3, r2
    33a8:	0a000016 	beq	3408 <_dtoa_r+0xd8>
    33ac:	e28d5010 	add	r5, sp, #16
    33b0:	e8950030 	ldm	r5, {r4, r5}
    33b4:	e3a02000 	mov	r2, #0
    33b8:	e1a00004 	mov	r0, r4
    33bc:	e1a01005 	mov	r1, r5
    33c0:	e3a03000 	mov	r3, #0
    33c4:	eb00171a 	bl	9034 <__aeabi_dcmpeq>
    33c8:	e3500000 	cmp	r0, #0
    33cc:	0a00001e 	beq	344c <_dtoa_r+0x11c>
    33d0:	e59d40b0 	ldr	r4, [sp, #176]	; 0xb0
    33d4:	e59dc0a8 	ldr	r12, [sp, #168]	; 0xa8
    33d8:	e3a03001 	mov	r3, #1
    33dc:	e3540000 	cmp	r4, #0
    33e0:	e58c3000 	str	r3, [r12]
    33e4:	0a00009a 	beq	3654 <_dtoa_r+0x324>
    33e8:	e59f44e8 	ldr	r4, [pc, #1256]	; 38d8 <_dtoa_r+0x5a8>
    33ec:	e59dc0b0 	ldr	r12, [sp, #176]	; 0xb0
    33f0:	e58c4000 	str	r4, [r12]
    33f4:	e2444001 	sub	r4, r4, #1
    33f8:	e1a00004 	mov	r0, r4
    33fc:	e28dd07c 	add	sp, sp, #124	; 0x7c
    3400:	e8bd4ff0 	pop	{r4, r5, r6, r7, r8, r9, r10, r11, lr}
    3404:	e12fff1e 	bx	lr
    3408:	e59d2010 	ldr	r2, [sp, #16]
    340c:	e59f34c8 	ldr	r3, [pc, #1224]	; 38dc <_dtoa_r+0x5ac>
    3410:	e59d40a8 	ldr	r4, [sp, #168]	; 0xa8
    3414:	e3520000 	cmp	r2, #0
    3418:	e5843000 	str	r3, [r4]
    341c:	0a000079 	beq	3608 <_dtoa_r+0x2d8>
    3420:	e59f44b8 	ldr	r4, [pc, #1208]	; 38e0 <_dtoa_r+0x5b0>
    3424:	e59dc0b0 	ldr	r12, [sp, #176]	; 0xb0
    3428:	e35c0000 	cmp	r12, #0
    342c:	0afffff1 	beq	33f8 <_dtoa_r+0xc8>
    3430:	e5d43003 	ldrb	r3, [r4, #3]
    3434:	e59dc0b0 	ldr	r12, [sp, #176]	; 0xb0
    3438:	e3530000 	cmp	r3, #0
    343c:	12843008 	addne	r3, r4, #8
    3440:	02843003 	addeq	r3, r4, #3
    3444:	e58c3000 	str	r3, [r12]
    3448:	eaffffea 	b	33f8 <_dtoa_r+0xc8>
    344c:	e28d3074 	add	r3, sp, #116	; 0x74
    3450:	e58d3000 	str	r3, [sp]
    3454:	e28d3070 	add	r3, sp, #112	; 0x70
    3458:	e58d3004 	str	r3, [sp, #4]
    345c:	e1a00006 	mov	r0, r6
    3460:	e1a02004 	mov	r2, r4
    3464:	e1a03005 	mov	r3, r5
    3468:	eb000adb 	bl	5fdc <__d2b>
    346c:	e1a0708a 	lsl	r7, r10, #1
    3470:	e1b07aa7 	lsrs	r7, r7, #21
    3474:	e1a0b000 	mov	r11, r0
    3478:	1a00006a 	bne	3628 <_dtoa_r+0x2f8>
    347c:	e59d8070 	ldr	r8, [sp, #112]	; 0x70
    3480:	e59d7074 	ldr	r7, [sp, #116]	; 0x74
    3484:	e3e03e41 	mvn	r3, #1040	; 0x410
    3488:	e0887007 	add	r7, r8, r7
    348c:	e1570003 	cmp	r7, r3
    3490:	ba0001da 	blt	3c00 <_dtoa_r+0x8d0>
    3494:	e2870e41 	add	r0, r7, #1040	; 0x410
    3498:	e59dc010 	ldr	r12, [sp, #16]
    349c:	e2800002 	add	r0, r0, #2
    34a0:	e1a0003c 	lsr	r0, r12, r0
    34a4:	e283301f 	add	r3, r3, #31
    34a8:	e0673003 	rsb	r3, r7, r3
    34ac:	e180031a 	orr	r0, r0, r10, lsl r3
    34b0:	eb001545 	bl	89cc <__aeabi_ui2d>
    34b4:	e3a04001 	mov	r4, #1
    34b8:	e58d4060 	str	r4, [sp, #96]	; 0x60
    34bc:	e241161f 	sub	r1, r1, #32505856	; 0x1f00000
    34c0:	e2477001 	sub	r7, r7, #1
    34c4:	e3a02000 	mov	r2, #0
    34c8:	e59f3414 	ldr	r3, [pc, #1044]	; 38e4 <_dtoa_r+0x5b4>
    34cc:	eb001479 	bl	86b8 <__aeabi_dsub>
    34d0:	e28f3ffa 	add	r3, pc, #1000	; 0x3e8
    34d4:	e893000c 	ldm	r3, {r2, r3}
    34d8:	eb00157b 	bl	8acc <__aeabi_dmul>
    34dc:	e28f3ff9 	add	r3, pc, #996	; 0x3e4
    34e0:	e893000c 	ldm	r3, {r2, r3}
    34e4:	eb001474 	bl	86bc <__adddf3>
    34e8:	e1a04000 	mov	r4, r0
    34ec:	e1a00007 	mov	r0, r7
    34f0:	e1a05001 	mov	r5, r1
    34f4:	eb00153d 	bl	89f0 <__aeabi_i2d>
    34f8:	e28f3e3d 	add	r3, pc, #976	; 0x3d0
    34fc:	e893000c 	ldm	r3, {r2, r3}
    3500:	eb001571 	bl	8acc <__aeabi_dmul>
    3504:	e1a02000 	mov	r2, r0
    3508:	e1a03001 	mov	r3, r1
    350c:	e1a00004 	mov	r0, r4
    3510:	e1a01005 	mov	r1, r5
    3514:	eb001468 	bl	86bc <__adddf3>
    3518:	e1a04000 	mov	r4, r0
    351c:	e1a05001 	mov	r5, r1
    3520:	eb0016e1 	bl	90ac <__aeabi_d2iz>
    3524:	e1a01005 	mov	r1, r5
    3528:	e1a09000 	mov	r9, r0
    352c:	e3a02000 	mov	r2, #0
    3530:	e1a00004 	mov	r0, r4
    3534:	e3a03000 	mov	r3, #0
    3538:	eb0016c3 	bl	904c <__aeabi_dcmplt>
    353c:	e3500000 	cmp	r0, #0
    3540:	1a0001a6 	bne	3be0 <_dtoa_r+0x8b0>
    3544:	e3590016 	cmp	r9, #22
    3548:	83a04001 	movhi	r4, #1
    354c:	858d404c 	strhi	r4, [sp, #76]	; 0x4c
    3550:	8a00000a 	bhi	3580 <_dtoa_r+0x250>
    3554:	e59f33a0 	ldr	r3, [pc, #928]	; 38fc <_dtoa_r+0x5cc>
    3558:	e0833189 	add	r3, r3, r9, lsl #3
    355c:	e8930003 	ldm	r3, {r0, r1}
    3560:	e28d3010 	add	r3, sp, #16
    3564:	e893000c 	ldm	r3, {r2, r3}
    3568:	eb0016c9 	bl	9094 <__aeabi_dcmpgt>
    356c:	e3500000 	cmp	r0, #0
    3570:	13a0c000 	movne	r12, #0
    3574:	158dc04c 	strne	r12, [sp, #76]	; 0x4c
    3578:	058d004c 	streq	r0, [sp, #76]	; 0x4c
    357c:	12499001 	subne	r9, r9, #1
    3580:	e0677008 	rsb	r7, r7, r8
    3584:	e2577001 	subs	r7, r7, #1
    3588:	42677000 	rsbmi	r7, r7, #0
    358c:	43a0c000 	movmi	r12, #0
    3590:	53a04000 	movpl	r4, #0
    3594:	458d702c 	strmi	r7, [sp, #44]	; 0x2c
    3598:	458dc028 	strmi	r12, [sp, #40]	; 0x28
    359c:	558d7028 	strpl	r7, [sp, #40]	; 0x28
    35a0:	558d402c 	strpl	r4, [sp, #44]	; 0x2c
    35a4:	e3590000 	cmp	r9, #0
    35a8:	ba000184 	blt	3bc0 <_dtoa_r+0x890>
    35ac:	e59dc028 	ldr	r12, [sp, #40]	; 0x28
    35b0:	e3a04000 	mov	r4, #0
    35b4:	e08cc009 	add	r12, r12, r9
    35b8:	e58dc028 	str	r12, [sp, #40]	; 0x28
    35bc:	e58d9048 	str	r9, [sp, #72]	; 0x48
    35c0:	e58d403c 	str	r4, [sp, #60]	; 0x3c
    35c4:	e59d40a0 	ldr	r4, [sp, #160]	; 0xa0
    35c8:	e3540009 	cmp	r4, #9
    35cc:	8a000022 	bhi	365c <_dtoa_r+0x32c>
    35d0:	e3540005 	cmp	r4, #5
    35d4:	c2444004 	subgt	r4, r4, #4
    35d8:	c58d40a0 	strgt	r4, [sp, #160]	; 0xa0
    35dc:	e59dc0a0 	ldr	r12, [sp, #160]	; 0xa0
    35e0:	e24c3002 	sub	r3, r12, #2
    35e4:	c3a04000 	movgt	r4, #0
    35e8:	d3a04001 	movle	r4, #1
    35ec:	e3530003 	cmp	r3, #3
    35f0:	979ff103 	ldrls	pc, [pc, r3, lsl #2]
    35f4:	ea00001a 	b	3664 <_dtoa_r+0x334>
    35f8:	00003c98 	.word	0x00003c98
    35fc:	00004030 	.word	0x00004030
    3600:	00004024 	.word	0x00004024
    3604:	00003ff0 	.word	0x00003ff0
    3608:	e3ca44ff 	bic	r4, r10, #-16777216	; 0xff000000
    360c:	e3c4460f 	bic	r4, r4, #15728640	; 0xf00000
    3610:	e59f32c8 	ldr	r3, [pc, #712]	; 38e0 <_dtoa_r+0x5b0>
    3614:	e59f22cc 	ldr	r2, [pc, #716]	; 38e8 <_dtoa_r+0x5b8>
    3618:	e3540000 	cmp	r4, #0
    361c:	01a04002 	moveq	r4, r2
    3620:	11a04003 	movne	r4, r3
    3624:	eaffff7e 	b	3424 <_dtoa_r+0xf4>
    3628:	e3c534ff 	bic	r3, r5, #-16777216	; 0xff000000
    362c:	e3c3360f 	bic	r3, r3, #15728640	; 0xf00000
    3630:	e1a00004 	mov	r0, r4
    3634:	e38335ff 	orr	r3, r3, #1069547520	; 0x3fc00000
    3638:	e2477fff 	sub	r7, r7, #1020	; 0x3fc
    363c:	e3a04000 	mov	r4, #0
    3640:	e3831603 	orr	r1, r3, #3145728	; 0x300000
    3644:	e2477003 	sub	r7, r7, #3
    3648:	e59d8070 	ldr	r8, [sp, #112]	; 0x70
    364c:	e58d4060 	str	r4, [sp, #96]	; 0x60
    3650:	eaffff9b 	b	34c4 <_dtoa_r+0x194>
    3654:	e59f4290 	ldr	r4, [pc, #656]	; 38ec <_dtoa_r+0x5bc>
    3658:	eaffff66 	b	33f8 <_dtoa_r+0xc8>
    365c:	e3a04000 	mov	r4, #0
    3660:	e58d40a0 	str	r4, [sp, #160]	; 0xa0
    3664:	e3a04000 	mov	r4, #0
    3668:	e5864044 	str	r4, [r6, #68]	; 0x44
    366c:	e1a00006 	mov	r0, r6
    3670:	e1a01004 	mov	r1, r4
    3674:	eb0007ca 	bl	55a4 <_Balloc>
    3678:	e3e0c000 	mvn	r12, #0
    367c:	e58dc044 	str	r12, [sp, #68]	; 0x44
    3680:	e58dc038 	str	r12, [sp, #56]	; 0x38
    3684:	e3a0c001 	mov	r12, #1
    3688:	e58d0024 	str	r0, [sp, #36]	; 0x24
    368c:	e5860040 	str	r0, [r6, #64]	; 0x40
    3690:	e58dc040 	str	r12, [sp, #64]	; 0x40
    3694:	e58d40a4 	str	r4, [sp, #164]	; 0xa4
    3698:	e59d3074 	ldr	r3, [sp, #116]	; 0x74
    369c:	e3530000 	cmp	r3, #0
    36a0:	ba0000ab 	blt	3954 <_dtoa_r+0x624>
    36a4:	e359000e 	cmp	r9, #14
    36a8:	ca0000a9 	bgt	3954 <_dtoa_r+0x624>
    36ac:	e59d40a4 	ldr	r4, [sp, #164]	; 0xa4
    36b0:	e59dc038 	ldr	r12, [sp, #56]	; 0x38
    36b4:	e59f3240 	ldr	r3, [pc, #576]	; 38fc <_dtoa_r+0x5cc>
    36b8:	e1a02fa4 	lsr	r2, r4, #31
    36bc:	e35c0000 	cmp	r12, #0
    36c0:	c3a02000 	movgt	r2, #0
    36c4:	d2022001 	andle	r2, r2, #1
    36c8:	e0833189 	add	r3, r3, r9, lsl #3
    36cc:	e3520000 	cmp	r2, #0
    36d0:	e8930006 	ldm	r3, {r1, r2}
    36d4:	e58d1018 	str	r1, [sp, #24]
    36d8:	e58d201c 	str	r2, [sp, #28]
    36dc:	1a000347 	bne	4400 <_dtoa_r+0x10d0>
    36e0:	e28d5010 	add	r5, sp, #16
    36e4:	e8950030 	ldm	r5, {r4, r5}
    36e8:	e1a03002 	mov	r3, r2
    36ec:	e1a00004 	mov	r0, r4
    36f0:	e1a02001 	mov	r2, r1
    36f4:	e1a01005 	mov	r1, r5
    36f8:	eb001597 	bl	8d5c <__aeabi_ddiv>
    36fc:	eb00166a 	bl	90ac <__aeabi_d2iz>
    3700:	e1a07000 	mov	r7, r0
    3704:	eb0014b9 	bl	89f0 <__aeabi_i2d>
    3708:	e28d3018 	add	r3, sp, #24
    370c:	e893000c 	ldm	r3, {r2, r3}
    3710:	eb0014ed 	bl	8acc <__aeabi_dmul>
    3714:	e1a03001 	mov	r3, r1
    3718:	e1a02000 	mov	r2, r0
    371c:	e1a01005 	mov	r1, r5
    3720:	e1a00004 	mov	r0, r4
    3724:	eb0013e3 	bl	86b8 <__aeabi_dsub>
    3728:	e59dc024 	ldr	r12, [sp, #36]	; 0x24
    372c:	e2873030 	add	r3, r7, #48	; 0x30
    3730:	e4cc3001 	strb	r3, [r12], #1
    3734:	e58dc030 	str	r12, [sp, #48]	; 0x30
    3738:	e59dc038 	ldr	r12, [sp, #56]	; 0x38
    373c:	e35c0001 	cmp	r12, #1
    3740:	e1a04000 	mov	r4, r0
    3744:	e1a05001 	mov	r5, r1
    3748:	e59dc030 	ldr	r12, [sp, #48]	; 0x30
    374c:	0a000039 	beq	3838 <_dtoa_r+0x508>
    3750:	e3a02000 	mov	r2, #0
    3754:	e59f31ac 	ldr	r3, [pc, #428]	; 3908 <_dtoa_r+0x5d8>
    3758:	eb0014db 	bl	8acc <__aeabi_dmul>
    375c:	e3a02000 	mov	r2, #0
    3760:	e3a03000 	mov	r3, #0
    3764:	e1a04000 	mov	r4, r0
    3768:	e1a05001 	mov	r5, r1
    376c:	eb001630 	bl	9034 <__aeabi_dcmpeq>
    3770:	e3500000 	cmp	r0, #0
    3774:	1a00047f 	bne	4978 <_dtoa_r+0x1648>
    3778:	e59dc024 	ldr	r12, [sp, #36]	; 0x24
    377c:	e59d1038 	ldr	r1, [sp, #56]	; 0x38
    3780:	e08c8001 	add	r8, r12, r1
    3784:	e58d9020 	str	r9, [sp, #32]
    3788:	e58d8010 	str	r8, [sp, #16]
    378c:	e28ca002 	add	r10, r12, #2
    3790:	e28d9018 	add	r9, sp, #24
    3794:	e8990300 	ldm	r9, {r8, r9}
    3798:	e58d6028 	str	r6, [sp, #40]	; 0x28
    379c:	ea000008 	b	37c4 <_dtoa_r+0x494>
    37a0:	eb0014c9 	bl	8acc <__aeabi_dmul>
    37a4:	e3a02000 	mov	r2, #0
    37a8:	e3a03000 	mov	r3, #0
    37ac:	e1a04000 	mov	r4, r0
    37b0:	e1a05001 	mov	r5, r1
    37b4:	eb00161e 	bl	9034 <__aeabi_dcmpeq>
    37b8:	e3500000 	cmp	r0, #0
    37bc:	e28aa001 	add	r10, r10, #1
    37c0:	1a0003af 	bne	4684 <_dtoa_r+0x1354>
    37c4:	e1a02008 	mov	r2, r8
    37c8:	e1a03009 	mov	r3, r9
    37cc:	e1a00004 	mov	r0, r4
    37d0:	e1a01005 	mov	r1, r5
    37d4:	eb001560 	bl	8d5c <__aeabi_ddiv>
    37d8:	eb001633 	bl	90ac <__aeabi_d2iz>
    37dc:	e1a07000 	mov	r7, r0
    37e0:	eb001482 	bl	89f0 <__aeabi_i2d>
    37e4:	e1a02008 	mov	r2, r8
    37e8:	e1a03009 	mov	r3, r9
    37ec:	eb0014b6 	bl	8acc <__aeabi_dmul>
    37f0:	e1a02000 	mov	r2, r0
    37f4:	e1a03001 	mov	r3, r1
    37f8:	e1a00004 	mov	r0, r4
    37fc:	e1a01005 	mov	r1, r5
    3800:	eb0013ac 	bl	86b8 <__aeabi_dsub>
    3804:	e59dc010 	ldr	r12, [sp, #16]
    3808:	e15a000c 	cmp	r10, r12
    380c:	e287c030 	add	r12, r7, #48	; 0x30
    3810:	e1a04000 	mov	r4, r0
    3814:	e1a05001 	mov	r5, r1
    3818:	e3a02000 	mov	r2, #0
    381c:	e59f30e4 	ldr	r3, [pc, #228]	; 3908 <_dtoa_r+0x5d8>
    3820:	e54ac001 	strb	r12, [r10, #-1]
    3824:	e1a0600a 	mov	r6, r10
    3828:	1affffdc 	bne	37a0 <_dtoa_r+0x470>
    382c:	e59d9020 	ldr	r9, [sp, #32]
    3830:	e59d6028 	ldr	r6, [sp, #40]	; 0x28
    3834:	e1a0c00a 	mov	r12, r10
    3838:	e1a02004 	mov	r2, r4
    383c:	e1a03005 	mov	r3, r5
    3840:	e1a00004 	mov	r0, r4
    3844:	e1a01005 	mov	r1, r5
    3848:	e58dc008 	str	r12, [sp, #8]
    384c:	eb00139a 	bl	86bc <__adddf3>
    3850:	e1a04000 	mov	r4, r0
    3854:	e1a05001 	mov	r5, r1
    3858:	e1a02004 	mov	r2, r4
    385c:	e28d1018 	add	r1, sp, #24
    3860:	e8910003 	ldm	r1, {r0, r1}
    3864:	e1a03005 	mov	r3, r5
    3868:	eb0015f7 	bl	904c <__aeabi_dcmplt>
    386c:	e3500000 	cmp	r0, #0
    3870:	e59dc008 	ldr	r12, [sp, #8]
    3874:	1a00000a 	bne	38a4 <_dtoa_r+0x574>
    3878:	e28d1018 	add	r1, sp, #24
    387c:	e8910003 	ldm	r1, {r0, r1}
    3880:	e1a02004 	mov	r2, r4
    3884:	e1a03005 	mov	r3, r5
    3888:	e58dc008 	str	r12, [sp, #8]
    388c:	eb0015e8 	bl	9034 <__aeabi_dcmpeq>
    3890:	e3500000 	cmp	r0, #0
    3894:	e59dc008 	ldr	r12, [sp, #8]
    3898:	0a00037c 	beq	4690 <_dtoa_r+0x1360>
    389c:	e3170001 	tst	r7, #1
    38a0:	0a00037a 	beq	4690 <_dtoa_r+0x1360>
    38a4:	e55c8001 	ldrb	r8, [r12, #-1]
    38a8:	e59d4024 	ldr	r4, [sp, #36]	; 0x24
    38ac:	e58d9064 	str	r9, [sp, #100]	; 0x64
    38b0:	e1a0900c 	mov	r9, r12
    38b4:	e59d1030 	ldr	r1, [sp, #48]	; 0x30
    38b8:	ea000017 	b	391c <_dtoa_r+0x5ec>
    38bc:	e1a00000 	nop			; (mov r0, r0)
    38c0:	636f4361 	.word	0x636f4361
    38c4:	3fd287a7 	.word	0x3fd287a7
    38c8:	8b60c8b3 	.word	0x8b60c8b3
    38cc:	3fc68a28 	.word	0x3fc68a28
    38d0:	509f79fb 	.word	0x509f79fb
    38d4:	3fd34413 	.word	0x3fd34413
    38d8:	00009e99 	.word	0x00009e99
    38dc:	0000270f 	.word	0x0000270f
    38e0:	00009eac 	.word	0x00009eac
    38e4:	3ff80000 	.word	0x3ff80000
    38e8:	00009ea0 	.word	0x00009ea0
    38ec:	00009e98 	.word	0x00009e98
    38f0:	fffffbee 	.word	0xfffffbee
    38f4:	3ff00000 	.word	0x3ff00000
    38f8:	00009fc0 	.word	0x00009fc0
    38fc:	00009ed0 	.word	0x00009ed0
    3900:	40140000 	.word	0x40140000
    3904:	7ff00000 	.word	0x7ff00000
    3908:	40240000 	.word	0x40240000
    390c:	401c0000 	.word	0x401c0000
    3910:	3fe00000 	.word	0x3fe00000
    3914:	e5598002 	ldrb	r8, [r9, #-2]
    3918:	e1a09003 	mov	r9, r3
    391c:	e3580039 	cmp	r8, #57	; 0x39
    3920:	e1a02009 	mov	r2, r9
    3924:	e2493001 	sub	r3, r9, #1
    3928:	1a0003c2 	bne	4838 <_dtoa_r+0x1508>
    392c:	e1590001 	cmp	r9, r1
    3930:	1afffff7 	bne	3914 <_dtoa_r+0x5e4>
    3934:	e58d2024 	str	r2, [sp, #36]	; 0x24
    3938:	e59dc064 	ldr	r12, [sp, #100]	; 0x64
    393c:	e3a02030 	mov	r2, #48	; 0x30
    3940:	e5c32000 	strb	r2, [r3]
    3944:	e28c9001 	add	r9, r12, #1
    3948:	e3a08031 	mov	r8, #49	; 0x31
    394c:	e5c38000 	strb	r8, [r3]
    3950:	ea00008b 	b	3b84 <_dtoa_r+0x854>
    3954:	e59d4040 	ldr	r4, [sp, #64]	; 0x40
    3958:	e3540000 	cmp	r4, #0
    395c:	1a0000ac 	bne	3c14 <_dtoa_r+0x8e4>
    3960:	e59d503c 	ldr	r5, [sp, #60]	; 0x3c
    3964:	e59d402c 	ldr	r4, [sp, #44]	; 0x2c
    3968:	e59da040 	ldr	r10, [sp, #64]	; 0x40
    396c:	e59dc028 	ldr	r12, [sp, #40]	; 0x28
    3970:	e35c0000 	cmp	r12, #0
    3974:	c3540000 	cmpgt	r4, #0
    3978:	da000009 	ble	39a4 <_dtoa_r+0x674>
    397c:	e1a0300c 	mov	r3, r12
    3980:	e59dc02c 	ldr	r12, [sp, #44]	; 0x2c
    3984:	e1530004 	cmp	r3, r4
    3988:	a1a03004 	movge	r3, r4
    398c:	e063c00c 	rsb	r12, r3, r12
    3990:	e58dc02c 	str	r12, [sp, #44]	; 0x2c
    3994:	e59dc028 	ldr	r12, [sp, #40]	; 0x28
    3998:	e063c00c 	rsb	r12, r3, r12
    399c:	e58dc028 	str	r12, [sp, #40]	; 0x28
    39a0:	e0634004 	rsb	r4, r3, r4
    39a4:	e59dc03c 	ldr	r12, [sp, #60]	; 0x3c
    39a8:	e35c0000 	cmp	r12, #0
    39ac:	da000015 	ble	3a08 <_dtoa_r+0x6d8>
    39b0:	e59dc040 	ldr	r12, [sp, #64]	; 0x40
    39b4:	e35c0000 	cmp	r12, #0
    39b8:	0a00032b 	beq	466c <_dtoa_r+0x133c>
    39bc:	e3550000 	cmp	r5, #0
    39c0:	da00000d 	ble	39fc <_dtoa_r+0x6cc>
    39c4:	e1a0100a 	mov	r1, r10
    39c8:	e1a02005 	mov	r2, r5
    39cc:	e1a00006 	mov	r0, r6
    39d0:	eb00084b 	bl	5b04 <__pow5mult>
    39d4:	e1a0a000 	mov	r10, r0
    39d8:	e1a0200b 	mov	r2, r11
    39dc:	e1a0100a 	mov	r1, r10
    39e0:	e1a00006 	mov	r0, r6
    39e4:	eb0007cd 	bl	5920 <__multiply>
    39e8:	e1a0100b 	mov	r1, r11
    39ec:	e1a07000 	mov	r7, r0
    39f0:	e1a00006 	mov	r0, r6
    39f4:	eb00070d 	bl	5630 <_Bfree>
    39f8:	e1a0b007 	mov	r11, r7
    39fc:	e59dc03c 	ldr	r12, [sp, #60]	; 0x3c
    3a00:	e05c2005 	subs	r2, r12, r5
    3a04:	1a00035d 	bne	4780 <_dtoa_r+0x1450>
    3a08:	e1a00006 	mov	r0, r6
    3a0c:	e3a01001 	mov	r1, #1
    3a10:	eb0007b9 	bl	58fc <__i2b>
    3a14:	e59dc048 	ldr	r12, [sp, #72]	; 0x48
    3a18:	e35c0000 	cmp	r12, #0
    3a1c:	e1a07000 	mov	r7, r0
    3a20:	da000004 	ble	3a38 <_dtoa_r+0x708>
    3a24:	e1a01007 	mov	r1, r7
    3a28:	e1a00006 	mov	r0, r6
    3a2c:	e1a0200c 	mov	r2, r12
    3a30:	eb000833 	bl	5b04 <__pow5mult>
    3a34:	e1a07000 	mov	r7, r0
    3a38:	e59dc0a0 	ldr	r12, [sp, #160]	; 0xa0
    3a3c:	e35c0001 	cmp	r12, #1
    3a40:	da00027e 	ble	4440 <_dtoa_r+0x1110>
    3a44:	e3a05000 	mov	r5, #0
    3a48:	e59dc048 	ldr	r12, [sp, #72]	; 0x48
    3a4c:	e35c0000 	cmp	r12, #0
    3a50:	03a00001 	moveq	r0, #1
    3a54:	1a000247 	bne	4378 <_dtoa_r+0x1048>
    3a58:	e59dc028 	ldr	r12, [sp, #40]	; 0x28
    3a5c:	e080300c 	add	r3, r0, r12
    3a60:	e213301f 	ands	r3, r3, #31
    3a64:	0a0001d4 	beq	41bc <_dtoa_r+0xe8c>
    3a68:	e2632020 	rsb	r2, r3, #32
    3a6c:	e3520004 	cmp	r2, #4
    3a70:	da0003dc 	ble	49e8 <_dtoa_r+0x16b8>
    3a74:	e263301c 	rsb	r3, r3, #28
    3a78:	e59dc02c 	ldr	r12, [sp, #44]	; 0x2c
    3a7c:	e08cc003 	add	r12, r12, r3
    3a80:	e58dc02c 	str	r12, [sp, #44]	; 0x2c
    3a84:	e59dc028 	ldr	r12, [sp, #40]	; 0x28
    3a88:	e08cc003 	add	r12, r12, r3
    3a8c:	e58dc028 	str	r12, [sp, #40]	; 0x28
    3a90:	e0844003 	add	r4, r4, r3
    3a94:	e59dc02c 	ldr	r12, [sp, #44]	; 0x2c
    3a98:	e35c0000 	cmp	r12, #0
    3a9c:	da000004 	ble	3ab4 <_dtoa_r+0x784>
    3aa0:	e1a0100b 	mov	r1, r11
    3aa4:	e1a00006 	mov	r0, r6
    3aa8:	e1a0200c 	mov	r2, r12
    3aac:	eb000851 	bl	5bf8 <__lshift>
    3ab0:	e1a0b000 	mov	r11, r0
    3ab4:	e59dc028 	ldr	r12, [sp, #40]	; 0x28
    3ab8:	e35c0000 	cmp	r12, #0
    3abc:	da000004 	ble	3ad4 <_dtoa_r+0x7a4>
    3ac0:	e1a01007 	mov	r1, r7
    3ac4:	e1a00006 	mov	r0, r6
    3ac8:	e1a0200c 	mov	r2, r12
    3acc:	eb000849 	bl	5bf8 <__lshift>
    3ad0:	e1a07000 	mov	r7, r0
    3ad4:	e59dc04c 	ldr	r12, [sp, #76]	; 0x4c
    3ad8:	e35c0000 	cmp	r12, #0
    3adc:	1a00022b 	bne	4390 <_dtoa_r+0x1060>
    3ae0:	e59dc0a0 	ldr	r12, [sp, #160]	; 0xa0
    3ae4:	e59d1038 	ldr	r1, [sp, #56]	; 0x38
    3ae8:	e35c0002 	cmp	r12, #2
    3aec:	d3a03000 	movle	r3, #0
    3af0:	c3a03001 	movgt	r3, #1
    3af4:	e3510000 	cmp	r1, #0
    3af8:	c3a03000 	movgt	r3, #0
    3afc:	e3530000 	cmp	r3, #0
    3b00:	0a000170 	beq	40c8 <_dtoa_r+0xd98>
    3b04:	e59d4038 	ldr	r4, [sp, #56]	; 0x38
    3b08:	e3540000 	cmp	r4, #0
    3b0c:	1a000168 	bne	40b4 <_dtoa_r+0xd84>
    3b10:	e1a01007 	mov	r1, r7
    3b14:	e3a02005 	mov	r2, #5
    3b18:	e1a03004 	mov	r3, r4
    3b1c:	e1a00006 	mov	r0, r6
    3b20:	eb0006c9 	bl	564c <__multadd>
    3b24:	e1a07000 	mov	r7, r0
    3b28:	e1a01007 	mov	r1, r7
    3b2c:	e1a0000b 	mov	r0, r11
    3b30:	eb000871 	bl	5cfc <__mcmp>
    3b34:	e3500000 	cmp	r0, #0
    3b38:	da00015d 	ble	40b4 <_dtoa_r+0xd84>
    3b3c:	e59d3024 	ldr	r3, [sp, #36]	; 0x24
    3b40:	e3a02031 	mov	r2, #49	; 0x31
    3b44:	e4c32001 	strb	r2, [r3], #1
    3b48:	e59d4024 	ldr	r4, [sp, #36]	; 0x24
    3b4c:	e58d3024 	str	r3, [sp, #36]	; 0x24
    3b50:	e2899001 	add	r9, r9, #1
    3b54:	e3a05000 	mov	r5, #0
    3b58:	e1a00006 	mov	r0, r6
    3b5c:	e1a01007 	mov	r1, r7
    3b60:	eb0006b2 	bl	5630 <_Bfree>
    3b64:	e35a0000 	cmp	r10, #0
    3b68:	0a000005 	beq	3b84 <_dtoa_r+0x854>
    3b6c:	e155000a 	cmp	r5, r10
    3b70:	13550000 	cmpne	r5, #0
    3b74:	1a000198 	bne	41dc <_dtoa_r+0xeac>
    3b78:	e1a00006 	mov	r0, r6
    3b7c:	e1a0100a 	mov	r1, r10
    3b80:	eb0006aa 	bl	5630 <_Bfree>
    3b84:	e1a00006 	mov	r0, r6
    3b88:	e1a0100b 	mov	r1, r11
    3b8c:	eb0006a7 	bl	5630 <_Bfree>
    3b90:	e59dc0b0 	ldr	r12, [sp, #176]	; 0xb0
    3b94:	e35c0000 	cmp	r12, #0
    3b98:	e59dc024 	ldr	r12, [sp, #36]	; 0x24
    3b9c:	e3a02000 	mov	r2, #0
    3ba0:	e5cc2000 	strb	r2, [r12]
    3ba4:	e59dc0a8 	ldr	r12, [sp, #168]	; 0xa8
    3ba8:	e2893001 	add	r3, r9, #1
    3bac:	e58c3000 	str	r3, [r12]
    3bb0:	159dc024 	ldrne	r12, [sp, #36]	; 0x24
    3bb4:	159d10b0 	ldrne	r1, [sp, #176]	; 0xb0
    3bb8:	1581c000 	strne	r12, [r1]
    3bbc:	eafffe0d 	b	33f8 <_dtoa_r+0xc8>
    3bc0:	e59dc02c 	ldr	r12, [sp, #44]	; 0x2c
    3bc4:	e069c00c 	rsb	r12, r9, r12
    3bc8:	e58dc02c 	str	r12, [sp, #44]	; 0x2c
    3bcc:	e2694000 	rsb	r4, r9, #0
    3bd0:	e3a0c000 	mov	r12, #0
    3bd4:	e58d403c 	str	r4, [sp, #60]	; 0x3c
    3bd8:	e58dc048 	str	r12, [sp, #72]	; 0x48
    3bdc:	eafffe78 	b	35c4 <_dtoa_r+0x294>
    3be0:	e1a00009 	mov	r0, r9
    3be4:	eb001381 	bl	89f0 <__aeabi_i2d>
    3be8:	e1a02004 	mov	r2, r4
    3bec:	e1a03005 	mov	r3, r5
    3bf0:	eb00150f 	bl	9034 <__aeabi_dcmpeq>
    3bf4:	e3500000 	cmp	r0, #0
    3bf8:	02499001 	subeq	r9, r9, #1
    3bfc:	eafffe50 	b	3544 <_dtoa_r+0x214>
    3c00:	e51f0318 	ldr	r0, [pc, #-792]	; 38f0 <_dtoa_r+0x5c0>
    3c04:	e59d1010 	ldr	r1, [sp, #16]
    3c08:	e0670000 	rsb	r0, r7, r0
    3c0c:	e1a00011 	lsl	r0, r1, r0
    3c10:	eafffe26 	b	34b0 <_dtoa_r+0x180>
    3c14:	e59dc0a0 	ldr	r12, [sp, #160]	; 0xa0
    3c18:	e35c0001 	cmp	r12, #1
    3c1c:	da0002dc 	ble	4794 <_dtoa_r+0x1464>
    3c20:	e59dc038 	ldr	r12, [sp, #56]	; 0x38
    3c24:	e59d403c 	ldr	r4, [sp, #60]	; 0x3c
    3c28:	e24c5001 	sub	r5, r12, #1
    3c2c:	e1540005 	cmp	r4, r5
    3c30:	b59dc03c 	ldrlt	r12, [sp, #60]	; 0x3c
    3c34:	b59d4048 	ldrlt	r4, [sp, #72]	; 0x48
    3c38:	b06c3005 	rsblt	r3, r12, r5
    3c3c:	e59dc038 	ldr	r12, [sp, #56]	; 0x38
    3c40:	b0844003 	addlt	r4, r4, r3
    3c44:	a0655004 	rsbge	r5, r5, r4
    3c48:	b58d4048 	strlt	r4, [sp, #72]	; 0x48
    3c4c:	b58d503c 	strlt	r5, [sp, #60]	; 0x3c
    3c50:	b3a05000 	movlt	r5, #0
    3c54:	e35c0000 	cmp	r12, #0
    3c58:	b59d102c 	ldrlt	r1, [sp, #44]	; 0x2c
    3c5c:	a59d402c 	ldrge	r4, [sp, #44]	; 0x2c
    3c60:	a59d3038 	ldrge	r3, [sp, #56]	; 0x38
    3c64:	b06c4001 	rsblt	r4, r12, r1
    3c68:	b3a03000 	movlt	r3, #0
    3c6c:	e59dc02c 	ldr	r12, [sp, #44]	; 0x2c
    3c70:	e08cc003 	add	r12, r12, r3
    3c74:	e58dc02c 	str	r12, [sp, #44]	; 0x2c
    3c78:	e59dc028 	ldr	r12, [sp, #40]	; 0x28
    3c7c:	e1a00006 	mov	r0, r6
    3c80:	e08cc003 	add	r12, r12, r3
    3c84:	e3a01001 	mov	r1, #1
    3c88:	e58dc028 	str	r12, [sp, #40]	; 0x28
    3c8c:	eb00071a 	bl	58fc <__i2b>
    3c90:	e1a0a000 	mov	r10, r0
    3c94:	eaffff34 	b	396c <_dtoa_r+0x63c>
    3c98:	e3a0c000 	mov	r12, #0
    3c9c:	e58dc040 	str	r12, [sp, #64]	; 0x40
    3ca0:	e59d10a4 	ldr	r1, [sp, #164]	; 0xa4
    3ca4:	e3510000 	cmp	r1, #0
    3ca8:	da000262 	ble	4638 <_dtoa_r+0x1308>
    3cac:	e58d1044 	str	r1, [sp, #68]	; 0x44
    3cb0:	e58d1038 	str	r1, [sp, #56]	; 0x38
    3cb4:	e1a08001 	mov	r8, r1
    3cb8:	e351000e 	cmp	r1, #14
    3cbc:	83a04000 	movhi	r4, #0
    3cc0:	92044001 	andls	r4, r4, #1
    3cc4:	e3a01000 	mov	r1, #0
    3cc8:	e3580017 	cmp	r8, #23
    3ccc:	e5861044 	str	r1, [r6, #68]	; 0x44
    3cd0:	9a000008 	bls	3cf8 <_dtoa_r+0x9c8>
    3cd4:	e3a02001 	mov	r2, #1
    3cd8:	e3a03004 	mov	r3, #4
    3cdc:	e1a03083 	lsl	r3, r3, #1
    3ce0:	e2830014 	add	r0, r3, #20
    3ce4:	e1500008 	cmp	r0, r8
    3ce8:	e1a01002 	mov	r1, r2
    3cec:	e2822001 	add	r2, r2, #1
    3cf0:	9afffff9 	bls	3cdc <_dtoa_r+0x9ac>
    3cf4:	e5861044 	str	r1, [r6, #68]	; 0x44
    3cf8:	e1a00006 	mov	r0, r6
    3cfc:	eb000628 	bl	55a4 <_Balloc>
    3d00:	e3540000 	cmp	r4, #0
    3d04:	e58d0024 	str	r0, [sp, #36]	; 0x24
    3d08:	e5860040 	str	r0, [r6, #64]	; 0x40
    3d0c:	0afffe61 	beq	3698 <_dtoa_r+0x368>
    3d10:	e3590000 	cmp	r9, #0
    3d14:	da000134 	ble	41ec <_dtoa_r+0xebc>
    3d18:	e51f2424 	ldr	r2, [pc, #-1060]	; 38fc <_dtoa_r+0x5cc>
    3d1c:	e209300f 	and	r3, r9, #15
    3d20:	e1a07249 	asr	r7, r9, #4
    3d24:	e0823183 	add	r3, r2, r3, lsl #3
    3d28:	e3170010 	tst	r7, #16
    3d2c:	e8930030 	ldm	r3, {r4, r5}
    3d30:	0a000123 	beq	41c4 <_dtoa_r+0xe94>
    3d34:	e51f3444 	ldr	r3, [pc, #-1092]	; 38f8 <_dtoa_r+0x5c8>
    3d38:	e28d1010 	add	r1, sp, #16
    3d3c:	e8910003 	ldm	r1, {r0, r1}
    3d40:	e2833020 	add	r3, r3, #32
    3d44:	e893000c 	ldm	r3, {r2, r3}
    3d48:	eb001403 	bl	8d5c <__aeabi_ddiv>
    3d4c:	e58d0030 	str	r0, [sp, #48]	; 0x30
    3d50:	e58d1034 	str	r1, [sp, #52]	; 0x34
    3d54:	e207700f 	and	r7, r7, #15
    3d58:	e3a08003 	mov	r8, #3
    3d5c:	e3570000 	cmp	r7, #0
    3d60:	0a00000c 	beq	3d98 <_dtoa_r+0xa68>
    3d64:	e51fa474 	ldr	r10, [pc, #-1140]	; 38f8 <_dtoa_r+0x5c8>
    3d68:	e1a00004 	mov	r0, r4
    3d6c:	e1a01005 	mov	r1, r5
    3d70:	e3170001 	tst	r7, #1
    3d74:	0a000002 	beq	3d84 <_dtoa_r+0xa54>
    3d78:	e89a000c 	ldm	r10, {r2, r3}
    3d7c:	eb001352 	bl	8acc <__aeabi_dmul>
    3d80:	e2888001 	add	r8, r8, #1
    3d84:	e1b070c7 	asrs	r7, r7, #1
    3d88:	e28aa008 	add	r10, r10, #8
    3d8c:	1afffff7 	bne	3d70 <_dtoa_r+0xa40>
    3d90:	e1a04000 	mov	r4, r0
    3d94:	e1a05001 	mov	r5, r1
    3d98:	e28d1030 	add	r1, sp, #48	; 0x30
    3d9c:	e8910003 	ldm	r1, {r0, r1}
    3da0:	e1a02004 	mov	r2, r4
    3da4:	e1a03005 	mov	r3, r5
    3da8:	eb0013eb 	bl	8d5c <__aeabi_ddiv>
    3dac:	e58d0030 	str	r0, [sp, #48]	; 0x30
    3db0:	e58d1034 	str	r1, [sp, #52]	; 0x34
    3db4:	e59d404c 	ldr	r4, [sp, #76]	; 0x4c
    3db8:	e3540000 	cmp	r4, #0
    3dbc:	0a000006 	beq	3ddc <_dtoa_r+0xaac>
    3dc0:	e28d1030 	add	r1, sp, #48	; 0x30
    3dc4:	e8910003 	ldm	r1, {r0, r1}
    3dc8:	e3a02000 	mov	r2, #0
    3dcc:	e51f34e0 	ldr	r3, [pc, #-1248]	; 38f4 <_dtoa_r+0x5c4>
    3dd0:	eb00149d 	bl	904c <__aeabi_dcmplt>
    3dd4:	e3500000 	cmp	r0, #0
    3dd8:	1a000235 	bne	46b4 <_dtoa_r+0x1384>
    3ddc:	e1a00008 	mov	r0, r8
    3de0:	eb001302 	bl	89f0 <__aeabi_i2d>
    3de4:	e28d3030 	add	r3, sp, #48	; 0x30
    3de8:	e893000c 	ldm	r3, {r2, r3}
    3dec:	eb001336 	bl	8acc <__aeabi_dmul>
    3df0:	e3a02000 	mov	r2, #0
    3df4:	e51f34f0 	ldr	r3, [pc, #-1264]	; 390c <_dtoa_r+0x5dc>
    3df8:	eb00122f 	bl	86bc <__adddf3>
    3dfc:	e59dc038 	ldr	r12, [sp, #56]	; 0x38
    3e00:	e35c0000 	cmp	r12, #0
    3e04:	e1a04000 	mov	r4, r0
    3e08:	e241550d 	sub	r5, r1, #54525952	; 0x3400000
    3e0c:	0a000094 	beq	4064 <_dtoa_r+0xd34>
    3e10:	e58d9064 	str	r9, [sp, #100]	; 0x64
    3e14:	e59da038 	ldr	r10, [sp, #56]	; 0x38
    3e18:	e59dc040 	ldr	r12, [sp, #64]	; 0x40
    3e1c:	e35c0000 	cmp	r12, #0
    3e20:	0a00010f 	beq	4264 <_dtoa_r+0xf34>
    3e24:	e51f3530 	ldr	r3, [pc, #-1328]	; 38fc <_dtoa_r+0x5cc>
    3e28:	e083318a 	add	r3, r3, r10, lsl #3
    3e2c:	e913000c 	ldmdb	r3, {r2, r3}
    3e30:	e3a00000 	mov	r0, #0
    3e34:	e51f152c 	ldr	r1, [pc, #-1324]	; 3910 <_dtoa_r+0x5e0>
    3e38:	eb0013c7 	bl	8d5c <__aeabi_ddiv>
    3e3c:	e1a02004 	mov	r2, r4
    3e40:	e1a03005 	mov	r3, r5
    3e44:	eb00121b 	bl	86b8 <__aeabi_dsub>
    3e48:	e58d0050 	str	r0, [sp, #80]	; 0x50
    3e4c:	e58d1054 	str	r1, [sp, #84]	; 0x54
    3e50:	e28d1030 	add	r1, sp, #48	; 0x30
    3e54:	e8910003 	ldm	r1, {r0, r1}
    3e58:	eb001493 	bl	90ac <__aeabi_d2iz>
    3e5c:	e1a07000 	mov	r7, r0
    3e60:	eb0012e2 	bl	89f0 <__aeabi_i2d>
    3e64:	e1a02000 	mov	r2, r0
    3e68:	e1a03001 	mov	r3, r1
    3e6c:	e28d1030 	add	r1, sp, #48	; 0x30
    3e70:	e8910003 	ldm	r1, {r0, r1}
    3e74:	eb00120f 	bl	86b8 <__aeabi_dsub>
    3e78:	e2877030 	add	r7, r7, #48	; 0x30
    3e7c:	e59dc024 	ldr	r12, [sp, #36]	; 0x24
    3e80:	e20780ff 	and	r8, r7, #255	; 0xff
    3e84:	e4cc8001 	strb	r8, [r12], #1
    3e88:	e1a04000 	mov	r4, r0
    3e8c:	e1a05001 	mov	r5, r1
    3e90:	e1a02004 	mov	r2, r4
    3e94:	e28d1050 	add	r1, sp, #80	; 0x50
    3e98:	e8910003 	ldm	r1, {r0, r1}
    3e9c:	e1a03005 	mov	r3, r5
    3ea0:	e58dc030 	str	r12, [sp, #48]	; 0x30
    3ea4:	eb00147a 	bl	9094 <__aeabi_dcmpgt>
    3ea8:	e3500000 	cmp	r0, #0
    3eac:	e59dc030 	ldr	r12, [sp, #48]	; 0x30
    3eb0:	1a0002c7 	bne	49d4 <_dtoa_r+0x16a4>
    3eb4:	e1a02004 	mov	r2, r4
    3eb8:	e1a03005 	mov	r3, r5
    3ebc:	e3a00000 	mov	r0, #0
    3ec0:	e51f15d4 	ldr	r1, [pc, #-1492]	; 38f4 <_dtoa_r+0x5c4>
    3ec4:	e58dc008 	str	r12, [sp, #8]
    3ec8:	eb0011fa 	bl	86b8 <__aeabi_dsub>
    3ecc:	e1a02000 	mov	r2, r0
    3ed0:	e1a03001 	mov	r3, r1
    3ed4:	e28d1050 	add	r1, sp, #80	; 0x50
    3ed8:	e8910003 	ldm	r1, {r0, r1}
    3edc:	eb00146c 	bl	9094 <__aeabi_dcmpgt>
    3ee0:	e3500000 	cmp	r0, #0
    3ee4:	e59dc008 	ldr	r12, [sp, #8]
    3ee8:	1a000250 	bne	4830 <_dtoa_r+0x1500>
    3eec:	e35a0001 	cmp	r10, #1
    3ef0:	dafffde8 	ble	3698 <_dtoa_r+0x368>
    3ef4:	e59dc024 	ldr	r12, [sp, #36]	; 0x24
    3ef8:	e59d7030 	ldr	r7, [sp, #48]	; 0x30
    3efc:	e08ca00a 	add	r10, r12, r10
    3f00:	e58d906c 	str	r9, [sp, #108]	; 0x6c
    3f04:	e58d6068 	str	r6, [sp, #104]	; 0x68
    3f08:	e1a0900a 	mov	r9, r10
    3f0c:	e58db058 	str	r11, [sp, #88]	; 0x58
    3f10:	e1a0a007 	mov	r10, r7
    3f14:	e28d7050 	add	r7, sp, #80	; 0x50
    3f18:	e89700c0 	ldm	r7, {r6, r7}
    3f1c:	ea000007 	b	3f40 <_dtoa_r+0xc10>
    3f20:	eb0011e4 	bl	86b8 <__aeabi_dsub>
    3f24:	e1a02006 	mov	r2, r6
    3f28:	e1a03007 	mov	r3, r7
    3f2c:	eb001446 	bl	904c <__aeabi_dcmplt>
    3f30:	e3500000 	cmp	r0, #0
    3f34:	1a00023a 	bne	4824 <_dtoa_r+0x14f4>
    3f38:	e15a0009 	cmp	r10, r9
    3f3c:	0a000241 	beq	4848 <_dtoa_r+0x1518>
    3f40:	e3a02000 	mov	r2, #0
    3f44:	e51f3644 	ldr	r3, [pc, #-1604]	; 3908 <_dtoa_r+0x5d8>
    3f48:	e1a00006 	mov	r0, r6
    3f4c:	e1a01007 	mov	r1, r7
    3f50:	eb0012dd 	bl	8acc <__aeabi_dmul>
    3f54:	e3a02000 	mov	r2, #0
    3f58:	e51f3658 	ldr	r3, [pc, #-1624]	; 3908 <_dtoa_r+0x5d8>
    3f5c:	e1a06000 	mov	r6, r0
    3f60:	e1a07001 	mov	r7, r1
    3f64:	e1a00004 	mov	r0, r4
    3f68:	e1a01005 	mov	r1, r5
    3f6c:	eb0012d6 	bl	8acc <__aeabi_dmul>
    3f70:	e1a05001 	mov	r5, r1
    3f74:	e1a04000 	mov	r4, r0
    3f78:	eb00144b 	bl	90ac <__aeabi_d2iz>
    3f7c:	e1a08000 	mov	r8, r0
    3f80:	eb00129a 	bl	89f0 <__aeabi_i2d>
    3f84:	e1a02000 	mov	r2, r0
    3f88:	e1a03001 	mov	r3, r1
    3f8c:	e1a00004 	mov	r0, r4
    3f90:	e1a01005 	mov	r1, r5
    3f94:	eb0011c7 	bl	86b8 <__aeabi_dsub>
    3f98:	e2888030 	add	r8, r8, #48	; 0x30
    3f9c:	e20880ff 	and	r8, r8, #255	; 0xff
    3fa0:	e4ca8001 	strb	r8, [r10], #1
    3fa4:	e1a02006 	mov	r2, r6
    3fa8:	e1a03007 	mov	r3, r7
    3fac:	e1a05001 	mov	r5, r1
    3fb0:	e1a04000 	mov	r4, r0
    3fb4:	eb001424 	bl	904c <__aeabi_dcmplt>
    3fb8:	e3500000 	cmp	r0, #0
    3fbc:	e1a02004 	mov	r2, r4
    3fc0:	e1a03005 	mov	r3, r5
    3fc4:	e3a00000 	mov	r0, #0
    3fc8:	e51f16dc 	ldr	r1, [pc, #-1756]	; 38f4 <_dtoa_r+0x5c4>
    3fcc:	e1a0b00a 	mov	r11, r10
    3fd0:	0affffd2 	beq	3f20 <_dtoa_r+0xbf0>
    3fd4:	e59d4024 	ldr	r4, [sp, #36]	; 0x24
    3fd8:	e1a0700a 	mov	r7, r10
    3fdc:	e59db058 	ldr	r11, [sp, #88]	; 0x58
    3fe0:	e59d6068 	ldr	r6, [sp, #104]	; 0x68
    3fe4:	e59d9064 	ldr	r9, [sp, #100]	; 0x64
    3fe8:	e58da024 	str	r10, [sp, #36]	; 0x24
    3fec:	eafffee4 	b	3b84 <_dtoa_r+0x854>
    3ff0:	e3a0c001 	mov	r12, #1
    3ff4:	e58dc040 	str	r12, [sp, #64]	; 0x40
    3ff8:	e59dc0a4 	ldr	r12, [sp, #164]	; 0xa4
    3ffc:	e08cc009 	add	r12, r12, r9
    4000:	e28c8001 	add	r8, r12, #1
    4004:	e3580000 	cmp	r8, #0
    4008:	e58dc044 	str	r12, [sp, #68]	; 0x44
    400c:	da000191 	ble	4658 <_dtoa_r+0x1328>
    4010:	e358000e 	cmp	r8, #14
    4014:	83a04000 	movhi	r4, #0
    4018:	92044001 	andls	r4, r4, #1
    401c:	e58d8038 	str	r8, [sp, #56]	; 0x38
    4020:	eaffff27 	b	3cc4 <_dtoa_r+0x994>
    4024:	e3a0c001 	mov	r12, #1
    4028:	e58dc040 	str	r12, [sp, #64]	; 0x40
    402c:	eaffff1b 	b	3ca0 <_dtoa_r+0x970>
    4030:	e3a0c000 	mov	r12, #0
    4034:	e58dc040 	str	r12, [sp, #64]	; 0x40
    4038:	eaffffee 	b	3ff8 <_dtoa_r+0xcc8>
    403c:	e1a00008 	mov	r0, r8
    4040:	eb00126a 	bl	89f0 <__aeabi_i2d>
    4044:	e28d3030 	add	r3, sp, #48	; 0x30
    4048:	e893000c 	ldm	r3, {r2, r3}
    404c:	eb00129e 	bl	8acc <__aeabi_dmul>
    4050:	e3a02000 	mov	r2, #0
    4054:	e51f3750 	ldr	r3, [pc, #-1872]	; 390c <_dtoa_r+0x5dc>
    4058:	eb001197 	bl	86bc <__adddf3>
    405c:	e1a04000 	mov	r4, r0
    4060:	e241550d 	sub	r5, r1, #54525952	; 0x3400000
    4064:	e3a02000 	mov	r2, #0
    4068:	e51f3770 	ldr	r3, [pc, #-1904]	; 3900 <_dtoa_r+0x5d0>
    406c:	e28d1030 	add	r1, sp, #48	; 0x30
    4070:	e8910003 	ldm	r1, {r0, r1}
    4074:	eb00118f 	bl	86b8 <__aeabi_dsub>
    4078:	e1a02004 	mov	r2, r4
    407c:	e1a03005 	mov	r3, r5
    4080:	e1a07000 	mov	r7, r0
    4084:	e1a08001 	mov	r8, r1
    4088:	eb001401 	bl	9094 <__aeabi_dcmpgt>
    408c:	e250a000 	subs	r10, r0, #0
    4090:	1a000070 	bne	4258 <_dtoa_r+0xf28>
    4094:	e1a02004 	mov	r2, r4
    4098:	e2853102 	add	r3, r5, #-2147483648	; 0x80000000
    409c:	e1a00007 	mov	r0, r7
    40a0:	e1a01008 	mov	r1, r8
    40a4:	eb0013e8 	bl	904c <__aeabi_dcmplt>
    40a8:	e3500000 	cmp	r0, #0
    40ac:	0afffd79 	beq	3698 <_dtoa_r+0x368>
    40b0:	e1a0700a 	mov	r7, r10
    40b4:	e59dc0a4 	ldr	r12, [sp, #164]	; 0xa4
    40b8:	e59d4024 	ldr	r4, [sp, #36]	; 0x24
    40bc:	e1e0900c 	mvn	r9, r12
    40c0:	e3a05000 	mov	r5, #0
    40c4:	eafffea3 	b	3b58 <_dtoa_r+0x828>
    40c8:	e59dc040 	ldr	r12, [sp, #64]	; 0x40
    40cc:	e35c0000 	cmp	r12, #0
    40d0:	1a0000ee 	bne	4490 <_dtoa_r+0x1160>
    40d4:	e3a04000 	mov	r4, #0
    40d8:	e59d5038 	ldr	r5, [sp, #56]	; 0x38
    40dc:	e59d8024 	ldr	r8, [sp, #36]	; 0x24
    40e0:	ea000005 	b	40fc <_dtoa_r+0xdcc>
    40e4:	e1a0100b 	mov	r1, r11
    40e8:	e1a00006 	mov	r0, r6
    40ec:	e3a0200a 	mov	r2, #10
    40f0:	e3a03000 	mov	r3, #0
    40f4:	eb000554 	bl	564c <__multadd>
    40f8:	e1a0b000 	mov	r11, r0
    40fc:	e1a01007 	mov	r1, r7
    4100:	e1a0000b 	mov	r0, r11
    4104:	ebfffc11 	bl	3150 <quorem>
    4108:	e2800030 	add	r0, r0, #48	; 0x30
    410c:	e7c80004 	strb	r0, [r8, r4]
    4110:	e2844001 	add	r4, r4, #1
    4114:	e1540005 	cmp	r4, r5
    4118:	bafffff1 	blt	40e4 <_dtoa_r+0xdb4>
    411c:	e59dc024 	ldr	r12, [sp, #36]	; 0x24
    4120:	e59d4038 	ldr	r4, [sp, #56]	; 0x38
    4124:	e1a03000 	mov	r3, r0
    4128:	e3540001 	cmp	r4, #1
    412c:	a08cc004 	addge	r12, r12, r4
    4130:	b28cc001 	addlt	r12, r12, #1
    4134:	e3a05000 	mov	r5, #0
    4138:	e1a0100b 	mov	r1, r11
    413c:	e3a02001 	mov	r2, #1
    4140:	e1a00006 	mov	r0, r6
    4144:	e58d300c 	str	r3, [sp, #12]
    4148:	e58dc008 	str	r12, [sp, #8]
    414c:	eb0006a9 	bl	5bf8 <__lshift>
    4150:	e1a01007 	mov	r1, r7
    4154:	e1a0b000 	mov	r11, r0
    4158:	eb0006e7 	bl	5cfc <__mcmp>
    415c:	e3500000 	cmp	r0, #0
    4160:	e59d300c 	ldr	r3, [sp, #12]
    4164:	e59dc008 	ldr	r12, [sp, #8]
    4168:	da0001ba 	ble	4858 <_dtoa_r+0x1528>
    416c:	e59d4024 	ldr	r4, [sp, #36]	; 0x24
    4170:	e2844001 	add	r4, r4, #1
    4174:	e55c3001 	ldrb	r3, [r12, #-1]
    4178:	e58d4030 	str	r4, [sp, #48]	; 0x30
    417c:	e1a0100c 	mov	r1, r12
    4180:	e59d0030 	ldr	r0, [sp, #48]	; 0x30
    4184:	ea000001 	b	4190 <_dtoa_r+0xe60>
    4188:	e5513002 	ldrb	r3, [r1, #-2]
    418c:	e1a01002 	mov	r1, r2
    4190:	e3530039 	cmp	r3, #57	; 0x39
    4194:	e2412001 	sub	r2, r1, #1
    4198:	1a0001cd 	bne	48d4 <_dtoa_r+0x15a4>
    419c:	e1510000 	cmp	r1, r0
    41a0:	1afffff8 	bne	4188 <_dtoa_r+0xe58>
    41a4:	e3a03031 	mov	r3, #49	; 0x31
    41a8:	e59d4024 	ldr	r4, [sp, #36]	; 0x24
    41ac:	e2899001 	add	r9, r9, #1
    41b0:	e5c23000 	strb	r3, [r2]
    41b4:	e58d1024 	str	r1, [sp, #36]	; 0x24
    41b8:	eafffe66 	b	3b58 <_dtoa_r+0x828>
    41bc:	e3a0301c 	mov	r3, #28
    41c0:	eafffe2c 	b	3a78 <_dtoa_r+0x748>
    41c4:	e28d3010 	add	r3, sp, #16
    41c8:	e893000c 	ldm	r3, {r2, r3}
    41cc:	e3a08002 	mov	r8, #2
    41d0:	e58d2030 	str	r2, [sp, #48]	; 0x30
    41d4:	e58d3034 	str	r3, [sp, #52]	; 0x34
    41d8:	eafffedf 	b	3d5c <_dtoa_r+0xa2c>
    41dc:	e1a00006 	mov	r0, r6
    41e0:	e1a01005 	mov	r1, r5
    41e4:	eb000511 	bl	5630 <_Bfree>
    41e8:	eafffe62 	b	3b78 <_dtoa_r+0x848>
    41ec:	e2694000 	rsb	r4, r9, #0
    41f0:	e3540000 	cmp	r4, #0
    41f4:	0a000128 	beq	469c <_dtoa_r+0x136c>
    41f8:	e51f3904 	ldr	r3, [pc, #-2308]	; 38fc <_dtoa_r+0x5cc>
    41fc:	e204200f 	and	r2, r4, #15
    4200:	e0833182 	add	r3, r3, r2, lsl #3
    4204:	e28d1010 	add	r1, sp, #16
    4208:	e8910003 	ldm	r1, {r0, r1}
    420c:	e893000c 	ldm	r3, {r2, r3}
    4210:	eb00122d 	bl	8acc <__aeabi_dmul>
    4214:	e1b04244 	asrs	r4, r4, #4
    4218:	e58d0030 	str	r0, [sp, #48]	; 0x30
    421c:	e58d1034 	str	r1, [sp, #52]	; 0x34
    4220:	0a0001d2 	beq	4970 <_dtoa_r+0x1640>
    4224:	e51f5934 	ldr	r5, [pc, #-2356]	; 38f8 <_dtoa_r+0x5c8>
    4228:	e3a08002 	mov	r8, #2
    422c:	e3140001 	tst	r4, #1
    4230:	0a000002 	beq	4240 <_dtoa_r+0xf10>
    4234:	e895000c 	ldm	r5, {r2, r3}
    4238:	eb001223 	bl	8acc <__aeabi_dmul>
    423c:	e2888001 	add	r8, r8, #1
    4240:	e1b040c4 	asrs	r4, r4, #1
    4244:	e2855008 	add	r5, r5, #8
    4248:	1afffff7 	bne	422c <_dtoa_r+0xefc>
    424c:	e58d0030 	str	r0, [sp, #48]	; 0x30
    4250:	e58d1034 	str	r1, [sp, #52]	; 0x34
    4254:	eafffed6 	b	3db4 <_dtoa_r+0xa84>
    4258:	e3a07000 	mov	r7, #0
    425c:	e1a0a007 	mov	r10, r7
    4260:	eafffe35 	b	3b3c <_dtoa_r+0x80c>
    4264:	e51f1970 	ldr	r1, [pc, #-2416]	; 38fc <_dtoa_r+0x5cc>
    4268:	e24ac001 	sub	r12, r10, #1
    426c:	e081118c 	add	r1, r1, r12, lsl #3
    4270:	e1a02004 	mov	r2, r4
    4274:	e1a03005 	mov	r3, r5
    4278:	e8910003 	ldm	r1, {r0, r1}
    427c:	e58dc050 	str	r12, [sp, #80]	; 0x50
    4280:	eb001211 	bl	8acc <__aeabi_dmul>
    4284:	e58d0058 	str	r0, [sp, #88]	; 0x58
    4288:	e58d105c 	str	r1, [sp, #92]	; 0x5c
    428c:	e28d1030 	add	r1, sp, #48	; 0x30
    4290:	e8910003 	ldm	r1, {r0, r1}
    4294:	eb001384 	bl	90ac <__aeabi_d2iz>
    4298:	e1a07000 	mov	r7, r0
    429c:	eb0011d3 	bl	89f0 <__aeabi_i2d>
    42a0:	e1a02000 	mov	r2, r0
    42a4:	e1a03001 	mov	r3, r1
    42a8:	e28d1030 	add	r1, sp, #48	; 0x30
    42ac:	e8910003 	ldm	r1, {r0, r1}
    42b0:	eb001100 	bl	86b8 <__aeabi_dsub>
    42b4:	e59dc024 	ldr	r12, [sp, #36]	; 0x24
    42b8:	e2877030 	add	r7, r7, #48	; 0x30
    42bc:	e4cc7001 	strb	r7, [r12], #1
    42c0:	e35a0001 	cmp	r10, #1
    42c4:	e1a04000 	mov	r4, r0
    42c8:	e1a05001 	mov	r5, r1
    42cc:	e58dc030 	str	r12, [sp, #48]	; 0x30
    42d0:	0a000019 	beq	433c <_dtoa_r+0x100c>
    42d4:	e59dc024 	ldr	r12, [sp, #36]	; 0x24
    42d8:	e24c3001 	sub	r3, r12, #1
    42dc:	e1a0700c 	mov	r7, r12
    42e0:	e083a00a 	add	r10, r3, r10
    42e4:	e3a02000 	mov	r2, #0
    42e8:	e51f39e8 	ldr	r3, [pc, #-2536]	; 3908 <_dtoa_r+0x5d8>
    42ec:	eb0011f6 	bl	8acc <__aeabi_dmul>
    42f0:	e1a05001 	mov	r5, r1
    42f4:	e1a04000 	mov	r4, r0
    42f8:	eb00136b 	bl	90ac <__aeabi_d2iz>
    42fc:	e1a08000 	mov	r8, r0
    4300:	eb0011ba 	bl	89f0 <__aeabi_i2d>
    4304:	e2888030 	add	r8, r8, #48	; 0x30
    4308:	e1a02000 	mov	r2, r0
    430c:	e1a03001 	mov	r3, r1
    4310:	e1a00004 	mov	r0, r4
    4314:	e1a01005 	mov	r1, r5
    4318:	eb0010e6 	bl	86b8 <__aeabi_dsub>
    431c:	e5e78001 	strb	r8, [r7, #1]!
    4320:	e157000a 	cmp	r7, r10
    4324:	1affffee 	bne	42e4 <_dtoa_r+0xfb4>
    4328:	e1a05001 	mov	r5, r1
    432c:	e59d2050 	ldr	r2, [sp, #80]	; 0x50
    4330:	e59d1030 	ldr	r1, [sp, #48]	; 0x30
    4334:	e1a04000 	mov	r4, r0
    4338:	e081c002 	add	r12, r1, r2
    433c:	e3a02000 	mov	r2, #0
    4340:	e51f3a38 	ldr	r3, [pc, #-2616]	; 3910 <_dtoa_r+0x5e0>
    4344:	e28d1058 	add	r1, sp, #88	; 0x58
    4348:	e8910003 	ldm	r1, {r0, r1}
    434c:	e58dc008 	str	r12, [sp, #8]
    4350:	eb0010d9 	bl	86bc <__adddf3>
    4354:	e1a02004 	mov	r2, r4
    4358:	e1a03005 	mov	r3, r5
    435c:	eb00133a 	bl	904c <__aeabi_dcmplt>
    4360:	e3500000 	cmp	r0, #0
    4364:	e59dc008 	ldr	r12, [sp, #8]
    4368:	0a0000ee 	beq	4728 <_dtoa_r+0x13f8>
    436c:	e55c8001 	ldrb	r8, [r12, #-1]
    4370:	e59d4024 	ldr	r4, [sp, #36]	; 0x24
    4374:	eafffd4d 	b	38b0 <_dtoa_r+0x580>
    4378:	e5973010 	ldr	r3, [r7, #16]
    437c:	e0873103 	add	r3, r7, r3, lsl #2
    4380:	e5930010 	ldr	r0, [r3, #16]
    4384:	eb000523 	bl	5818 <__hi0bits>
    4388:	e2600020 	rsb	r0, r0, #32
    438c:	eafffdb1 	b	3a58 <_dtoa_r+0x728>
    4390:	e1a0000b 	mov	r0, r11
    4394:	e1a01007 	mov	r1, r7
    4398:	eb000657 	bl	5cfc <__mcmp>
    439c:	e3500000 	cmp	r0, #0
    43a0:	aafffdce 	bge	3ae0 <_dtoa_r+0x7b0>
    43a4:	e1a0100b 	mov	r1, r11
    43a8:	e1a00006 	mov	r0, r6
    43ac:	e3a0200a 	mov	r2, #10
    43b0:	e3a03000 	mov	r3, #0
    43b4:	eb0004a4 	bl	564c <__multadd>
    43b8:	e59dc040 	ldr	r12, [sp, #64]	; 0x40
    43bc:	e35c0000 	cmp	r12, #0
    43c0:	e1a0b000 	mov	r11, r0
    43c4:	e2499001 	sub	r9, r9, #1
    43c8:	1a00016e 	bne	4988 <_dtoa_r+0x1658>
    43cc:	e59d4044 	ldr	r4, [sp, #68]	; 0x44
    43d0:	e59dc0a0 	ldr	r12, [sp, #160]	; 0xa0
    43d4:	e3540000 	cmp	r4, #0
    43d8:	c3a03000 	movgt	r3, #0
    43dc:	d3a03001 	movle	r3, #1
    43e0:	e35c0002 	cmp	r12, #2
    43e4:	d3a03000 	movle	r3, #0
    43e8:	e3530000 	cmp	r3, #0
    43ec:	058d4038 	streq	r4, [sp, #56]	; 0x38
    43f0:	0affff37 	beq	40d4 <_dtoa_r+0xda4>
    43f4:	e59dc044 	ldr	r12, [sp, #68]	; 0x44
    43f8:	e58dc038 	str	r12, [sp, #56]	; 0x38
    43fc:	eafffdc0 	b	3b04 <_dtoa_r+0x7d4>
    4400:	e59d4038 	ldr	r4, [sp, #56]	; 0x38
    4404:	e3540000 	cmp	r4, #0
    4408:	1a00011e 	bne	4888 <_dtoa_r+0x1558>
    440c:	e3a02000 	mov	r2, #0
    4410:	e51f3b18 	ldr	r3, [pc, #-2840]	; 3900 <_dtoa_r+0x5d0>
    4414:	e28d1018 	add	r1, sp, #24
    4418:	e8910003 	ldm	r1, {r0, r1}
    441c:	eb0011aa 	bl	8acc <__aeabi_dmul>
    4420:	e28d3010 	add	r3, sp, #16
    4424:	e893000c 	ldm	r3, {r2, r3}
    4428:	eb001313 	bl	907c <__aeabi_dcmpge>
    442c:	e59d7038 	ldr	r7, [sp, #56]	; 0x38
    4430:	e3500000 	cmp	r0, #0
    4434:	e1a0a007 	mov	r10, r7
    4438:	1affff1d 	bne	40b4 <_dtoa_r+0xd84>
    443c:	eafffdbe 	b	3b3c <_dtoa_r+0x80c>
    4440:	e59d1010 	ldr	r1, [sp, #16]
    4444:	e3510000 	cmp	r1, #0
    4448:	1afffd7d 	bne	3a44 <_dtoa_r+0x714>
    444c:	e59d3014 	ldr	r3, [sp, #20]
    4450:	e3c324ff 	bic	r2, r3, #-16777216	; 0xff000000
    4454:	e3c2260f 	bic	r2, r2, #15728640	; 0xf00000
    4458:	e3520000 	cmp	r2, #0
    445c:	1a000121 	bne	48e8 <_dtoa_r+0x15b8>
    4460:	e51f5b64 	ldr	r5, [pc, #-2916]	; 3904 <_dtoa_r+0x5d4>
    4464:	e0035005 	and	r5, r3, r5
    4468:	e3550000 	cmp	r5, #0
    446c:	0afffd75 	beq	3a48 <_dtoa_r+0x718>
    4470:	e59dc02c 	ldr	r12, [sp, #44]	; 0x2c
    4474:	e28cc001 	add	r12, r12, #1
    4478:	e58dc02c 	str	r12, [sp, #44]	; 0x2c
    447c:	e59dc028 	ldr	r12, [sp, #40]	; 0x28
    4480:	e28cc001 	add	r12, r12, #1
    4484:	e58dc028 	str	r12, [sp, #40]	; 0x28
    4488:	e3a05001 	mov	r5, #1
    448c:	eafffd6d 	b	3a48 <_dtoa_r+0x718>
    4490:	e3540000 	cmp	r4, #0
    4494:	da000004 	ble	44ac <_dtoa_r+0x117c>
    4498:	e1a0100a 	mov	r1, r10
    449c:	e1a00006 	mov	r0, r6
    44a0:	e1a02004 	mov	r2, r4
    44a4:	eb0005d3 	bl	5bf8 <__lshift>
    44a8:	e1a0a000 	mov	r10, r0
    44ac:	e3550000 	cmp	r5, #0
    44b0:	01a0800a 	moveq	r8, r10
    44b4:	1a0000f6 	bne	4894 <_dtoa_r+0x1564>
    44b8:	e59d1038 	ldr	r1, [sp, #56]	; 0x38
    44bc:	e59dc024 	ldr	r12, [sp, #36]	; 0x24
    44c0:	e08cc001 	add	r12, r12, r1
    44c4:	e59d4024 	ldr	r4, [sp, #36]	; 0x24
    44c8:	e58dc02c 	str	r12, [sp, #44]	; 0x2c
    44cc:	e59dc010 	ldr	r12, [sp, #16]
    44d0:	e2844001 	add	r4, r4, #1
    44d4:	e20cc001 	and	r12, r12, #1
    44d8:	e58d4030 	str	r4, [sp, #48]	; 0x30
    44dc:	e1a0500a 	mov	r5, r10
    44e0:	e58dc020 	str	r12, [sp, #32]
    44e4:	e58d9038 	str	r9, [sp, #56]	; 0x38
    44e8:	ea00002e 	b	45a8 <_dtoa_r+0x1278>
    44ec:	e1a00006 	mov	r0, r6
    44f0:	e1a01003 	mov	r1, r3
    44f4:	e58d200c 	str	r2, [sp, #12]
    44f8:	eb00044c 	bl	5630 <_Bfree>
    44fc:	e59d200c 	ldr	r2, [sp, #12]
    4500:	e59dc0a0 	ldr	r12, [sp, #160]	; 0xa0
    4504:	e192c00c 	orrs	r12, r2, r12
    4508:	1a000002 	bne	4518 <_dtoa_r+0x11e8>
    450c:	e59dc020 	ldr	r12, [sp, #32]
    4510:	e35c0000 	cmp	r12, #0
    4514:	0a000109 	beq	4940 <_dtoa_r+0x1610>
    4518:	e35a0000 	cmp	r10, #0
    451c:	ba0000a6 	blt	47bc <_dtoa_r+0x148c>
    4520:	e59dc0a0 	ldr	r12, [sp, #160]	; 0xa0
    4524:	e19ac00c 	orrs	r12, r10, r12
    4528:	1a000002 	bne	4538 <_dtoa_r+0x1208>
    452c:	e59dc020 	ldr	r12, [sp, #32]
    4530:	e35c0000 	cmp	r12, #0
    4534:	0a0000a0 	beq	47bc <_dtoa_r+0x148c>
    4538:	e3520000 	cmp	r2, #0
    453c:	ca0000eb 	bgt	48f0 <_dtoa_r+0x15c0>
    4540:	e59dc02c 	ldr	r12, [sp, #44]	; 0x2c
    4544:	e154000c 	cmp	r4, r12
    4548:	e5449001 	strb	r9, [r4, #-1]
    454c:	e1a0c004 	mov	r12, r4
    4550:	0a0000f1 	beq	491c <_dtoa_r+0x15ec>
    4554:	e1a0100b 	mov	r1, r11
    4558:	e1a00006 	mov	r0, r6
    455c:	e3a0200a 	mov	r2, #10
    4560:	e3a03000 	mov	r3, #0
    4564:	eb000438 	bl	564c <__multadd>
    4568:	e1550008 	cmp	r5, r8
    456c:	e1a0b000 	mov	r11, r0
    4570:	0a000028 	beq	4618 <_dtoa_r+0x12e8>
    4574:	e1a01005 	mov	r1, r5
    4578:	e3a0200a 	mov	r2, #10
    457c:	e3a03000 	mov	r3, #0
    4580:	e1a00006 	mov	r0, r6
    4584:	eb000430 	bl	564c <__multadd>
    4588:	e1a01008 	mov	r1, r8
    458c:	e1a05000 	mov	r5, r0
    4590:	e3a0200a 	mov	r2, #10
    4594:	e1a00006 	mov	r0, r6
    4598:	e3a03000 	mov	r3, #0
    459c:	eb00042a 	bl	564c <__multadd>
    45a0:	e1a08000 	mov	r8, r0
    45a4:	e2844001 	add	r4, r4, #1
    45a8:	e1a01007 	mov	r1, r7
    45ac:	e1a0000b 	mov	r0, r11
    45b0:	ebfffae6 	bl	3150 <quorem>
    45b4:	e1a01005 	mov	r1, r5
    45b8:	e58d0010 	str	r0, [sp, #16]
    45bc:	e1a0000b 	mov	r0, r11
    45c0:	eb0005cd 	bl	5cfc <__mcmp>
    45c4:	e1a02008 	mov	r2, r8
    45c8:	e1a0a000 	mov	r10, r0
    45cc:	e1a01007 	mov	r1, r7
    45d0:	e1a00006 	mov	r0, r6
    45d4:	eb0005e1 	bl	5d60 <__mdiff>
    45d8:	e244c001 	sub	r12, r4, #1
    45dc:	e590200c 	ldr	r2, [r0, #12]
    45e0:	e58dc028 	str	r12, [sp, #40]	; 0x28
    45e4:	e59dc010 	ldr	r12, [sp, #16]
    45e8:	e3520000 	cmp	r2, #0
    45ec:	e1a03000 	mov	r3, r0
    45f0:	e28c9030 	add	r9, r12, #48	; 0x30
    45f4:	13a02001 	movne	r2, #1
    45f8:	1affffbb 	bne	44ec <_dtoa_r+0x11bc>
    45fc:	e1a01003 	mov	r1, r3
    4600:	e1a0000b 	mov	r0, r11
    4604:	e58d300c 	str	r3, [sp, #12]
    4608:	eb0005bb 	bl	5cfc <__mcmp>
    460c:	e59d300c 	ldr	r3, [sp, #12]
    4610:	e1a02000 	mov	r2, r0
    4614:	eaffffb4 	b	44ec <_dtoa_r+0x11bc>
    4618:	e1a01005 	mov	r1, r5
    461c:	e1a00006 	mov	r0, r6
    4620:	e3a0200a 	mov	r2, #10
    4624:	e3a03000 	mov	r3, #0
    4628:	eb000407 	bl	564c <__multadd>
    462c:	e1a05000 	mov	r5, r0
    4630:	e1a08000 	mov	r8, r0
    4634:	eaffffda 	b	45a4 <_dtoa_r+0x1274>
    4638:	e3a03001 	mov	r3, #1
    463c:	e58d3044 	str	r3, [sp, #68]	; 0x44
    4640:	e58d3038 	str	r3, [sp, #56]	; 0x38
    4644:	e58d30a4 	str	r3, [sp, #164]	; 0xa4
    4648:	e3a01000 	mov	r1, #0
    464c:	e5861044 	str	r1, [r6, #68]	; 0x44
    4650:	e0034004 	and	r4, r3, r4
    4654:	eafffda7 	b	3cf8 <_dtoa_r+0x9c8>
    4658:	e358000e 	cmp	r8, #14
    465c:	83a03000 	movhi	r3, #0
    4660:	93a03001 	movls	r3, #1
    4664:	e58d8038 	str	r8, [sp, #56]	; 0x38
    4668:	eafffff6 	b	4648 <_dtoa_r+0x1318>
    466c:	e1a0100b 	mov	r1, r11
    4670:	e1a00006 	mov	r0, r6
    4674:	e59d203c 	ldr	r2, [sp, #60]	; 0x3c
    4678:	eb000521 	bl	5b04 <__pow5mult>
    467c:	e1a0b000 	mov	r11, r0
    4680:	eafffce0 	b	3a08 <_dtoa_r+0x6d8>
    4684:	e1a0c006 	mov	r12, r6
    4688:	e59d9020 	ldr	r9, [sp, #32]
    468c:	e59d6028 	ldr	r6, [sp, #40]	; 0x28
    4690:	e59d4024 	ldr	r4, [sp, #36]	; 0x24
    4694:	e58dc024 	str	r12, [sp, #36]	; 0x24
    4698:	eafffd39 	b	3b84 <_dtoa_r+0x854>
    469c:	e28d4010 	add	r4, sp, #16
    46a0:	e8940018 	ldm	r4, {r3, r4}
    46a4:	e3a08002 	mov	r8, #2
    46a8:	e58d3030 	str	r3, [sp, #48]	; 0x30
    46ac:	e58d4034 	str	r4, [sp, #52]	; 0x34
    46b0:	eafffdbf 	b	3db4 <_dtoa_r+0xa84>
    46b4:	e59dc038 	ldr	r12, [sp, #56]	; 0x38
    46b8:	e35c0000 	cmp	r12, #0
    46bc:	0afffe5e 	beq	403c <_dtoa_r+0xd0c>
    46c0:	e59d4044 	ldr	r4, [sp, #68]	; 0x44
    46c4:	e3540000 	cmp	r4, #0
    46c8:	dafffbf2 	ble	3698 <_dtoa_r+0x368>
    46cc:	e3a02000 	mov	r2, #0
    46d0:	e51f3dd0 	ldr	r3, [pc, #-3536]	; 3908 <_dtoa_r+0x5d8>
    46d4:	e28d1030 	add	r1, sp, #48	; 0x30
    46d8:	e8910003 	ldm	r1, {r0, r1}
    46dc:	eb0010fa 	bl	8acc <__aeabi_dmul>
    46e0:	e58d0030 	str	r0, [sp, #48]	; 0x30
    46e4:	e58d1034 	str	r1, [sp, #52]	; 0x34
    46e8:	e2880001 	add	r0, r8, #1
    46ec:	eb0010bf 	bl	89f0 <__aeabi_i2d>
    46f0:	e1a02000 	mov	r2, r0
    46f4:	e1a03001 	mov	r3, r1
    46f8:	e28d1030 	add	r1, sp, #48	; 0x30
    46fc:	e8910003 	ldm	r1, {r0, r1}
    4700:	eb0010f1 	bl	8acc <__aeabi_dmul>
    4704:	e3a02000 	mov	r2, #0
    4708:	e51f3e04 	ldr	r3, [pc, #-3588]	; 390c <_dtoa_r+0x5dc>
    470c:	eb000fea 	bl	86bc <__adddf3>
    4710:	e249c001 	sub	r12, r9, #1
    4714:	e1a04000 	mov	r4, r0
    4718:	e58dc064 	str	r12, [sp, #100]	; 0x64
    471c:	e241550d 	sub	r5, r1, #54525952	; 0x3400000
    4720:	e59da044 	ldr	r10, [sp, #68]	; 0x44
    4724:	eafffdbb 	b	3e18 <_dtoa_r+0xae8>
    4728:	e28d3058 	add	r3, sp, #88	; 0x58
    472c:	e893000c 	ldm	r3, {r2, r3}
    4730:	e3a00000 	mov	r0, #0
    4734:	e51f1e2c 	ldr	r1, [pc, #-3628]	; 3910 <_dtoa_r+0x5e0>
    4738:	e58dc008 	str	r12, [sp, #8]
    473c:	eb000fdd 	bl	86b8 <__aeabi_dsub>
    4740:	e1a02004 	mov	r2, r4
    4744:	e1a03005 	mov	r3, r5
    4748:	eb001251 	bl	9094 <__aeabi_dcmpgt>
    474c:	e3500000 	cmp	r0, #0
    4750:	e59dc008 	ldr	r12, [sp, #8]
    4754:	0afffbcf 	beq	3698 <_dtoa_r+0x368>
    4758:	e1a0900c 	mov	r9, r12
    475c:	e5592001 	ldrb	r2, [r9, #-1]
    4760:	e3520030 	cmp	r2, #48	; 0x30
    4764:	e1a03009 	mov	r3, r9
    4768:	e2499001 	sub	r9, r9, #1
    476c:	0afffffa 	beq	475c <_dtoa_r+0x142c>
    4770:	e59d4024 	ldr	r4, [sp, #36]	; 0x24
    4774:	e59d9064 	ldr	r9, [sp, #100]	; 0x64
    4778:	e58d3024 	str	r3, [sp, #36]	; 0x24
    477c:	eafffd00 	b	3b84 <_dtoa_r+0x854>
    4780:	e1a0100b 	mov	r1, r11
    4784:	e1a00006 	mov	r0, r6
    4788:	eb0004dd 	bl	5b04 <__pow5mult>
    478c:	e1a0b000 	mov	r11, r0
    4790:	eafffc9c 	b	3a08 <_dtoa_r+0x6d8>
    4794:	e59d4060 	ldr	r4, [sp, #96]	; 0x60
    4798:	e3540000 	cmp	r4, #0
    479c:	059d3070 	ldreq	r3, [sp, #112]	; 0x70
    47a0:	12833e43 	addne	r3, r3, #1072	; 0x430
    47a4:	12833003 	addne	r3, r3, #3
    47a8:	159d503c 	ldrne	r5, [sp, #60]	; 0x3c
    47ac:	059d503c 	ldreq	r5, [sp, #60]	; 0x3c
    47b0:	02633036 	rsbeq	r3, r3, #54	; 0x36
    47b4:	e59d402c 	ldr	r4, [sp, #44]	; 0x2c
    47b8:	eafffd2b 	b	3c6c <_dtoa_r+0x93c>
    47bc:	e1a03009 	mov	r3, r9
    47c0:	e3520000 	cmp	r2, #0
    47c4:	e59d9038 	ldr	r9, [sp, #56]	; 0x38
    47c8:	e1a04003 	mov	r4, r3
    47cc:	da00000e 	ble	480c <_dtoa_r+0x14dc>
    47d0:	e1a0100b 	mov	r1, r11
    47d4:	e3a02001 	mov	r2, #1
    47d8:	e1a00006 	mov	r0, r6
    47dc:	e58d300c 	str	r3, [sp, #12]
    47e0:	eb000504 	bl	5bf8 <__lshift>
    47e4:	e1a01007 	mov	r1, r7
    47e8:	e1a0b000 	mov	r11, r0
    47ec:	eb000542 	bl	5cfc <__mcmp>
    47f0:	e3500000 	cmp	r0, #0
    47f4:	e59d300c 	ldr	r3, [sp, #12]
    47f8:	da000058 	ble	4960 <_dtoa_r+0x1630>
    47fc:	e3540039 	cmp	r4, #57	; 0x39
    4800:	e59d4010 	ldr	r4, [sp, #16]
    4804:	e2843031 	add	r3, r4, #49	; 0x31
    4808:	0a000047 	beq	492c <_dtoa_r+0x15fc>
    480c:	e59d2028 	ldr	r2, [sp, #40]	; 0x28
    4810:	e4c23001 	strb	r3, [r2], #1
    4814:	e59d4024 	ldr	r4, [sp, #36]	; 0x24
    4818:	e1a0a008 	mov	r10, r8
    481c:	e58d2024 	str	r2, [sp, #36]	; 0x24
    4820:	eafffccc 	b	3b58 <_dtoa_r+0x828>
    4824:	e1a0c00b 	mov	r12, r11
    4828:	e59d6068 	ldr	r6, [sp, #104]	; 0x68
    482c:	e59db058 	ldr	r11, [sp, #88]	; 0x58
    4830:	e59d4024 	ldr	r4, [sp, #36]	; 0x24
    4834:	eafffc1d 	b	38b0 <_dtoa_r+0x580>
    4838:	e58d9024 	str	r9, [sp, #36]	; 0x24
    483c:	e2888001 	add	r8, r8, #1
    4840:	e59d9064 	ldr	r9, [sp, #100]	; 0x64
    4844:	eafffc40 	b	394c <_dtoa_r+0x61c>
    4848:	e59d906c 	ldr	r9, [sp, #108]	; 0x6c
    484c:	e59db058 	ldr	r11, [sp, #88]	; 0x58
    4850:	e59d6068 	ldr	r6, [sp, #104]	; 0x68
    4854:	eafffb8f 	b	3698 <_dtoa_r+0x368>
    4858:	1a000001 	bne	4864 <_dtoa_r+0x1534>
    485c:	e3130001 	tst	r3, #1
    4860:	1afffe41 	bne	416c <_dtoa_r+0xe3c>
    4864:	e1a0100c 	mov	r1, r12
    4868:	e5512001 	ldrb	r2, [r1, #-1]
    486c:	e3520030 	cmp	r2, #48	; 0x30
    4870:	e1a03001 	mov	r3, r1
    4874:	e2411001 	sub	r1, r1, #1
    4878:	0afffffa 	beq	4868 <_dtoa_r+0x1538>
    487c:	e59d4024 	ldr	r4, [sp, #36]	; 0x24
    4880:	e58d3024 	str	r3, [sp, #36]	; 0x24
    4884:	eafffcb3 	b	3b58 <_dtoa_r+0x828>
    4888:	e3a07000 	mov	r7, #0
    488c:	e1a0a007 	mov	r10, r7
    4890:	eafffe07 	b	40b4 <_dtoa_r+0xd84>
    4894:	e59a1004 	ldr	r1, [r10, #4]
    4898:	e1a00006 	mov	r0, r6
    489c:	eb000340 	bl	55a4 <_Balloc>
    48a0:	e59a2010 	ldr	r2, [r10, #16]
    48a4:	e2822002 	add	r2, r2, #2
    48a8:	e1a04000 	mov	r4, r0
    48ac:	e1a02102 	lsl	r2, r2, #2
    48b0:	e28a100c 	add	r1, r10, #12
    48b4:	e280000c 	add	r0, r0, #12
    48b8:	eb0002b4 	bl	5390 <memcpy>
    48bc:	e1a00006 	mov	r0, r6
    48c0:	e1a01004 	mov	r1, r4
    48c4:	e3a02001 	mov	r2, #1
    48c8:	eb0004ca 	bl	5bf8 <__lshift>
    48cc:	e1a08000 	mov	r8, r0
    48d0:	eafffef8 	b	44b8 <_dtoa_r+0x1188>
    48d4:	e2833001 	add	r3, r3, #1
    48d8:	e59d4024 	ldr	r4, [sp, #36]	; 0x24
    48dc:	e5c23000 	strb	r3, [r2]
    48e0:	e58d1024 	str	r1, [sp, #36]	; 0x24
    48e4:	eafffc9b 	b	3b58 <_dtoa_r+0x828>
    48e8:	e59d5010 	ldr	r5, [sp, #16]
    48ec:	eafffc55 	b	3a48 <_dtoa_r+0x718>
    48f0:	e1a03009 	mov	r3, r9
    48f4:	e3530039 	cmp	r3, #57	; 0x39
    48f8:	e59d9038 	ldr	r9, [sp, #56]	; 0x38
    48fc:	0a00000a 	beq	492c <_dtoa_r+0x15fc>
    4900:	e59d2028 	ldr	r2, [sp, #40]	; 0x28
    4904:	e2833001 	add	r3, r3, #1
    4908:	e4c23001 	strb	r3, [r2], #1
    490c:	e59d4024 	ldr	r4, [sp, #36]	; 0x24
    4910:	e1a0a008 	mov	r10, r8
    4914:	e58d2024 	str	r2, [sp, #36]	; 0x24
    4918:	eafffc8e 	b	3b58 <_dtoa_r+0x828>
    491c:	e1a03009 	mov	r3, r9
    4920:	e1a0a008 	mov	r10, r8
    4924:	e59d9038 	ldr	r9, [sp, #56]	; 0x38
    4928:	eafffe02 	b	4138 <_dtoa_r+0xe08>
    492c:	e59dc028 	ldr	r12, [sp, #40]	; 0x28
    4930:	e3a03039 	mov	r3, #57	; 0x39
    4934:	e4cc3001 	strb	r3, [r12], #1
    4938:	e1a0a008 	mov	r10, r8
    493c:	eafffe0e 	b	417c <_dtoa_r+0xe4c>
    4940:	e1a03009 	mov	r3, r9
    4944:	e3530039 	cmp	r3, #57	; 0x39
    4948:	e59d9038 	ldr	r9, [sp, #56]	; 0x38
    494c:	0afffff6 	beq	492c <_dtoa_r+0x15fc>
    4950:	e35a0000 	cmp	r10, #0
    4954:	c59d4010 	ldrgt	r4, [sp, #16]
    4958:	c2843031 	addgt	r3, r4, #49	; 0x31
    495c:	eaffffaa 	b	480c <_dtoa_r+0x14dc>
    4960:	1affffa9 	bne	480c <_dtoa_r+0x14dc>
    4964:	e3130001 	tst	r3, #1
    4968:	0affffa7 	beq	480c <_dtoa_r+0x14dc>
    496c:	eaffffa2 	b	47fc <_dtoa_r+0x14cc>
    4970:	e3a08002 	mov	r8, #2
    4974:	eafffd0e 	b	3db4 <_dtoa_r+0xa84>
    4978:	e59dc030 	ldr	r12, [sp, #48]	; 0x30
    497c:	e59d4024 	ldr	r4, [sp, #36]	; 0x24
    4980:	e58dc024 	str	r12, [sp, #36]	; 0x24
    4984:	eafffc7e 	b	3b84 <_dtoa_r+0x854>
    4988:	e3a03000 	mov	r3, #0
    498c:	e1a0100a 	mov	r1, r10
    4990:	e1a00006 	mov	r0, r6
    4994:	e3a0200a 	mov	r2, #10
    4998:	eb00032b 	bl	564c <__multadd>
    499c:	e59dc044 	ldr	r12, [sp, #68]	; 0x44
    49a0:	e59d10a0 	ldr	r1, [sp, #160]	; 0xa0
    49a4:	e35c0000 	cmp	r12, #0
    49a8:	c3a03000 	movgt	r3, #0
    49ac:	d3a03001 	movle	r3, #1
    49b0:	e3510002 	cmp	r1, #2
    49b4:	d3a03000 	movle	r3, #0
    49b8:	e3530000 	cmp	r3, #0
    49bc:	e1a0a000 	mov	r10, r0
    49c0:	058dc038 	streq	r12, [sp, #56]	; 0x38
    49c4:	0afffeb1 	beq	4490 <_dtoa_r+0x1160>
    49c8:	e59d4044 	ldr	r4, [sp, #68]	; 0x44
    49cc:	e58d4038 	str	r4, [sp, #56]	; 0x38
    49d0:	eafffc4b 	b	3b04 <_dtoa_r+0x7d4>
    49d4:	e59dc030 	ldr	r12, [sp, #48]	; 0x30
    49d8:	e59d4024 	ldr	r4, [sp, #36]	; 0x24
    49dc:	e59d9064 	ldr	r9, [sp, #100]	; 0x64
    49e0:	e58dc024 	str	r12, [sp, #36]	; 0x24
    49e4:	eafffc66 	b	3b84 <_dtoa_r+0x854>
    49e8:	1263303c 	rsbne	r3, r3, #60	; 0x3c
    49ec:	0afffc28 	beq	3a94 <_dtoa_r+0x764>
    49f0:	eafffc20 	b	3a78 <_dtoa_r+0x748>
    49f4:	e1a00000 	nop			; (mov r0, r0)

000049f8 <__libc_fini_array>:
    49f8:	e92d4038 	push	{r3, r4, r5, lr}
    49fc:	e59f5030 	ldr	r5, [pc, #48]	; 4a34 <__libc_fini_array+0x3c>
    4a00:	e59f4030 	ldr	r4, [pc, #48]	; 4a38 <__libc_fini_array+0x40>
    4a04:	e0654004 	rsb	r4, r5, r4
    4a08:	e1b04144 	asrs	r4, r4, #2
    4a0c:	10855104 	addne	r5, r5, r4, lsl #2
    4a10:	0a000004 	beq	4a28 <__libc_fini_array+0x30>
    4a14:	e5353004 	ldr	r3, [r5, #-4]!
    4a18:	e1a0e00f 	mov	lr, pc
    4a1c:	e12fff13 	bx	r3
    4a20:	e2544001 	subs	r4, r4, #1
    4a24:	1afffffa 	bne	4a14 <__libc_fini_array+0x1c>
    4a28:	eb00157e 	bl	a028 <__libc_fini>
    4a2c:	e8bd4038 	pop	{r3, r4, r5, lr}
    4a30:	e12fff1e 	bx	lr
    4a34:	0000a040 	.word	0x0000a040
    4a38:	0000a044 	.word	0x0000a044

00004a3c <_gettimeofday_r>:
    4a3c:	e92d4038 	push	{r3, r4, r5, lr}
    4a40:	e59f4030 	ldr	r4, [pc, #48]	; 4a78 <_gettimeofday_r+0x3c>
    4a44:	e3a03000 	mov	r3, #0
    4a48:	e1a05000 	mov	r5, r0
    4a4c:	e1a00001 	mov	r0, r1
    4a50:	e1a01002 	mov	r1, r2
    4a54:	e5843000 	str	r3, [r4]
    4a58:	eb001463 	bl	9bec <_gettimeofday>
    4a5c:	e3700001 	cmn	r0, #1
    4a60:	1a000002 	bne	4a70 <_gettimeofday_r+0x34>
    4a64:	e5943000 	ldr	r3, [r4]
    4a68:	e3530000 	cmp	r3, #0
    4a6c:	15853000 	strne	r3, [r5]
    4a70:	e8bd4038 	pop	{r3, r4, r5, lr}
    4a74:	e12fff1e 	bx	lr
    4a78:	0000a9d4 	.word	0x0000a9d4

00004a7c <__gettzinfo>:
    4a7c:	e59f0000 	ldr	r0, [pc]	; 4a84 <__gettzinfo+0x8>
    4a80:	e12fff1e 	bx	lr
    4a84:	0000a498 	.word	0x0000a498

00004a88 <_setlocale_r>:
    4a88:	e92d4010 	push	{r4, lr}
    4a8c:	e2524000 	subs	r4, r2, #0
    4a90:	0a000004 	beq	4aa8 <_setlocale_r+0x20>
    4a94:	e1a00004 	mov	r0, r4
    4a98:	e59f1048 	ldr	r1, [pc, #72]	; 4ae8 <_setlocale_r+0x60>
    4a9c:	eb00069a 	bl	650c <strcmp>
    4aa0:	e3500000 	cmp	r0, #0
    4aa4:	1a000002 	bne	4ab4 <_setlocale_r+0x2c>
    4aa8:	e59f003c 	ldr	r0, [pc, #60]	; 4aec <_setlocale_r+0x64>
    4aac:	e8bd4010 	pop	{r4, lr}
    4ab0:	e12fff1e 	bx	lr
    4ab4:	e1a00004 	mov	r0, r4
    4ab8:	e59f102c 	ldr	r1, [pc, #44]	; 4aec <_setlocale_r+0x64>
    4abc:	eb000692 	bl	650c <strcmp>
    4ac0:	e3500000 	cmp	r0, #0
    4ac4:	0afffff7 	beq	4aa8 <_setlocale_r+0x20>
    4ac8:	e1a00004 	mov	r0, r4
    4acc:	e59f101c 	ldr	r1, [pc, #28]	; 4af0 <_setlocale_r+0x68>
    4ad0:	eb00068d 	bl	650c <strcmp>
    4ad4:	e59f3010 	ldr	r3, [pc, #16]	; 4aec <_setlocale_r+0x64>
    4ad8:	e3500000 	cmp	r0, #0
    4adc:	01a00003 	moveq	r0, r3
    4ae0:	13a00000 	movne	r0, #0
    4ae4:	eafffff0 	b	4aac <_setlocale_r+0x24>
    4ae8:	00009eb0 	.word	0x00009eb0
    4aec:	00009dcc 	.word	0x00009dcc
    4af0:	00009e78 	.word	0x00009e78

00004af4 <__locale_charset>:
    4af4:	e59f0000 	ldr	r0, [pc]	; 4afc <__locale_charset+0x8>
    4af8:	e12fff1e 	bx	lr
    4afc:	0000a4d8 	.word	0x0000a4d8

00004b00 <__locale_mb_cur_max>:
    4b00:	e59f3004 	ldr	r3, [pc, #4]	; 4b0c <__locale_mb_cur_max+0xc>
    4b04:	e5930020 	ldr	r0, [r3, #32]
    4b08:	e12fff1e 	bx	lr
    4b0c:	0000a4d8 	.word	0x0000a4d8

00004b10 <__locale_msgcharset>:
    4b10:	e59f0000 	ldr	r0, [pc]	; 4b18 <__locale_msgcharset+0x8>
    4b14:	e12fff1e 	bx	lr
    4b18:	0000a4fc 	.word	0x0000a4fc

00004b1c <__locale_cjk_lang>:
    4b1c:	e3a00000 	mov	r0, #0
    4b20:	e12fff1e 	bx	lr

00004b24 <_localeconv_r>:
    4b24:	e59f0000 	ldr	r0, [pc]	; 4b2c <_localeconv_r+0x8>
    4b28:	e12fff1e 	bx	lr
    4b2c:	0000a51c 	.word	0x0000a51c

00004b30 <setlocale>:
    4b30:	e1a02001 	mov	r2, r1
    4b34:	e59f100c 	ldr	r1, [pc, #12]	; 4b48 <setlocale+0x18>
    4b38:	e1a03000 	mov	r3, r0
    4b3c:	e5910000 	ldr	r0, [r1]
    4b40:	e1a01003 	mov	r1, r3
    4b44:	eaffffcf 	b	4a88 <_setlocale_r>
    4b48:	0000a060 	.word	0x0000a060

00004b4c <localeconv>:
    4b4c:	e59f0000 	ldr	r0, [pc]	; 4b54 <localeconv+0x8>
    4b50:	e12fff1e 	bx	lr
    4b54:	0000a51c 	.word	0x0000a51c

00004b58 <_malloc_r>:
    4b58:	e92d4ff0 	push	{r4, r5, r6, r7, r8, r9, r10, r11, lr}
    4b5c:	e281500b 	add	r5, r1, #11
    4b60:	e3550016 	cmp	r5, #22
    4b64:	83c55007 	bichi	r5, r5, #7
    4b68:	81a03fa5 	lsrhi	r3, r5, #31
    4b6c:	93a03000 	movls	r3, #0
    4b70:	93a05010 	movls	r5, #16
    4b74:	e1550001 	cmp	r5, r1
    4b78:	21a01003 	movcs	r1, r3
    4b7c:	33831001 	orrcc	r1, r3, #1
    4b80:	e3510000 	cmp	r1, #0
    4b84:	13a0300c 	movne	r3, #12
    4b88:	e24dd00c 	sub	sp, sp, #12
    4b8c:	e1a06000 	mov	r6, r0
    4b90:	15803000 	strne	r3, [r0]
    4b94:	13a04000 	movne	r4, #0
    4b98:	1a000015 	bne	4bf4 <_malloc_r+0x9c>
    4b9c:	eb00027e 	bl	559c <__malloc_lock>
    4ba0:	e3550f7e 	cmp	r5, #504	; 0x1f8
    4ba4:	2a000016 	bcs	4c04 <_malloc_r+0xac>
    4ba8:	e59f76b8 	ldr	r7, [pc, #1720]	; 5268 <_malloc_r+0x710>
    4bac:	e1a0e1a5 	lsr	lr, r5, #3
    4bb0:	e087318e 	add	r3, r7, lr, lsl #3
    4bb4:	e593400c 	ldr	r4, [r3, #12]
    4bb8:	e1540003 	cmp	r4, r3
    4bbc:	0a00014b 	beq	50f0 <_malloc_r+0x598>
    4bc0:	e5943004 	ldr	r3, [r4, #4]
    4bc4:	e3c33003 	bic	r3, r3, #3
    4bc8:	e0843003 	add	r3, r4, r3
    4bcc:	e5930004 	ldr	r0, [r3, #4]
    4bd0:	e2841008 	add	r1, r4, #8
    4bd4:	e8910006 	ldm	r1, {r1, r2}
    4bd8:	e3800001 	orr	r0, r0, #1
    4bdc:	e5830004 	str	r0, [r3, #4]
    4be0:	e581200c 	str	r2, [r1, #12]
    4be4:	e5821008 	str	r1, [r2, #8]
    4be8:	e1a00006 	mov	r0, r6
    4bec:	eb00026b 	bl	55a0 <__malloc_unlock>
    4bf0:	e2844008 	add	r4, r4, #8
    4bf4:	e1a00004 	mov	r0, r4
    4bf8:	e28dd00c 	add	sp, sp, #12
    4bfc:	e8bd4ff0 	pop	{r4, r5, r6, r7, r8, r9, r10, r11, lr}
    4c00:	e12fff1e 	bx	lr
    4c04:	e1b0e4a5 	lsrs	lr, r5, #9
    4c08:	01a0e1a5 	lsreq	lr, r5, #3
    4c0c:	01a0108e 	lsleq	r1, lr, #1
    4c10:	1a000061 	bne	4d9c <_malloc_r+0x244>
    4c14:	e59f764c 	ldr	r7, [pc, #1612]	; 5268 <_malloc_r+0x710>
    4c18:	e0871101 	add	r1, r7, r1, lsl #2
    4c1c:	e591400c 	ldr	r4, [r1, #12]
    4c20:	e1510004 	cmp	r1, r4
    4c24:	1a000005 	bne	4c40 <_malloc_r+0xe8>
    4c28:	ea00000a 	b	4c58 <_malloc_r+0x100>
    4c2c:	e3530000 	cmp	r3, #0
    4c30:	aa0000d7 	bge	4f94 <_malloc_r+0x43c>
    4c34:	e594400c 	ldr	r4, [r4, #12]
    4c38:	e1510004 	cmp	r1, r4
    4c3c:	0a000005 	beq	4c58 <_malloc_r+0x100>
    4c40:	e5942004 	ldr	r2, [r4, #4]
    4c44:	e3c22003 	bic	r2, r2, #3
    4c48:	e0653002 	rsb	r3, r5, r2
    4c4c:	e353000f 	cmp	r3, #15
    4c50:	dafffff5 	ble	4c2c <_malloc_r+0xd4>
    4c54:	e24ee001 	sub	lr, lr, #1
    4c58:	e28ee001 	add	lr, lr, #1
    4c5c:	e59f3604 	ldr	r3, [pc, #1540]	; 5268 <_malloc_r+0x710>
    4c60:	e5974010 	ldr	r4, [r7, #16]
    4c64:	e2838008 	add	r8, r3, #8
    4c68:	e1540008 	cmp	r4, r8
    4c6c:	05931004 	ldreq	r1, [r3, #4]
    4c70:	0a000016 	beq	4cd0 <_malloc_r+0x178>
    4c74:	e5942004 	ldr	r2, [r4, #4]
    4c78:	e3c22003 	bic	r2, r2, #3
    4c7c:	e0651002 	rsb	r1, r5, r2
    4c80:	e351000f 	cmp	r1, #15
    4c84:	ca0000f7 	bgt	5068 <_malloc_r+0x510>
    4c88:	e3510000 	cmp	r1, #0
    4c8c:	e5838014 	str	r8, [r3, #20]
    4c90:	e5838010 	str	r8, [r3, #16]
    4c94:	aa000046 	bge	4db4 <_malloc_r+0x25c>
    4c98:	e3520c02 	cmp	r2, #512	; 0x200
    4c9c:	2a0000d2 	bcs	4fec <_malloc_r+0x494>
    4ca0:	e5930004 	ldr	r0, [r3, #4]
    4ca4:	e1a021a2 	lsr	r2, r2, #3
    4ca8:	e1a01142 	asr	r1, r2, #2
    4cac:	e3a0c001 	mov	r12, #1
    4cb0:	e180111c 	orr	r1, r0, r12, lsl r1
    4cb4:	e0832182 	add	r2, r3, r2, lsl #3
    4cb8:	e5920008 	ldr	r0, [r2, #8]
    4cbc:	e584200c 	str	r2, [r4, #12]
    4cc0:	e5840008 	str	r0, [r4, #8]
    4cc4:	e5831004 	str	r1, [r3, #4]
    4cc8:	e5824008 	str	r4, [r2, #8]
    4ccc:	e580400c 	str	r4, [r0, #12]
    4cd0:	e1a0014e 	asr	r0, lr, #2
    4cd4:	e3a03001 	mov	r3, #1
    4cd8:	e1a00013 	lsl	r0, r3, r0
    4cdc:	e1500001 	cmp	r0, r1
    4ce0:	8a00003b 	bhi	4dd4 <_malloc_r+0x27c>
    4ce4:	e1110000 	tst	r1, r0
    4ce8:	1a000008 	bne	4d10 <_malloc_r+0x1b8>
    4cec:	e1a00310 	lsl	r0, r0, r3
    4cf0:	e3cee003 	bic	lr, lr, #3
    4cf4:	e1110000 	tst	r1, r0
    4cf8:	e28ee004 	add	lr, lr, #4
    4cfc:	1a000003 	bne	4d10 <_malloc_r+0x1b8>
    4d00:	e1a00080 	lsl	r0, r0, #1
    4d04:	e1110000 	tst	r1, r0
    4d08:	e28ee004 	add	lr, lr, #4
    4d0c:	0afffffb 	beq	4d00 <_malloc_r+0x1a8>
    4d10:	e087a18e 	add	r10, r7, lr, lsl #3
    4d14:	e1a0c00a 	mov	r12, r10
    4d18:	e1a0400e 	mov	r4, lr
    4d1c:	e59c300c 	ldr	r3, [r12, #12]
    4d20:	e15c0003 	cmp	r12, r3
    4d24:	1a000005 	bne	4d40 <_malloc_r+0x1e8>
    4d28:	ea0000db 	b	509c <_malloc_r+0x544>
    4d2c:	e3520000 	cmp	r2, #0
    4d30:	aa0000f4 	bge	5108 <_malloc_r+0x5b0>
    4d34:	e593300c 	ldr	r3, [r3, #12]
    4d38:	e15c0003 	cmp	r12, r3
    4d3c:	0a0000d6 	beq	509c <_malloc_r+0x544>
    4d40:	e5931004 	ldr	r1, [r3, #4]
    4d44:	e3c11003 	bic	r1, r1, #3
    4d48:	e0652001 	rsb	r2, r5, r1
    4d4c:	e352000f 	cmp	r2, #15
    4d50:	dafffff5 	ble	4d2c <_malloc_r+0x1d4>
    4d54:	e1a04003 	mov	r4, r3
    4d58:	e593000c 	ldr	r0, [r3, #12]
    4d5c:	e5b4c008 	ldr	r12, [r4, #8]!
    4d60:	e0831005 	add	r1, r3, r5
    4d64:	e382e001 	orr	lr, r2, #1
    4d68:	e3855001 	orr	r5, r5, #1
    4d6c:	e58c000c 	str	r0, [r12, #12]
    4d70:	e580c008 	str	r12, [r0, #8]
    4d74:	e5835004 	str	r5, [r3, #4]
    4d78:	e5871014 	str	r1, [r7, #20]
    4d7c:	e5871010 	str	r1, [r7, #16]
    4d80:	e581800c 	str	r8, [r1, #12]
    4d84:	e5818008 	str	r8, [r1, #8]
    4d88:	e581e004 	str	lr, [r1, #4]
    4d8c:	e7812002 	str	r2, [r1, r2]
    4d90:	e1a00006 	mov	r0, r6
    4d94:	eb000201 	bl	55a0 <__malloc_unlock>
    4d98:	eaffff95 	b	4bf4 <_malloc_r+0x9c>
    4d9c:	e35e0004 	cmp	lr, #4
    4da0:	8a000087 	bhi	4fc4 <_malloc_r+0x46c>
    4da4:	e1a0e325 	lsr	lr, r5, #6
    4da8:	e28ee038 	add	lr, lr, #56	; 0x38
    4dac:	e1a0108e 	lsl	r1, lr, #1
    4db0:	eaffff97 	b	4c14 <_malloc_r+0xbc>
    4db4:	e0842002 	add	r2, r4, r2
    4db8:	e5923004 	ldr	r3, [r2, #4]
    4dbc:	e3833001 	orr	r3, r3, #1
    4dc0:	e5823004 	str	r3, [r2, #4]
    4dc4:	e1a00006 	mov	r0, r6
    4dc8:	eb0001f4 	bl	55a0 <__malloc_unlock>
    4dcc:	e2844008 	add	r4, r4, #8
    4dd0:	eaffff87 	b	4bf4 <_malloc_r+0x9c>
    4dd4:	e5974008 	ldr	r4, [r7, #8]
    4dd8:	e594a004 	ldr	r10, [r4, #4]
    4ddc:	e3caa003 	bic	r10, r10, #3
    4de0:	e155000a 	cmp	r5, r10
    4de4:	8a000002 	bhi	4df4 <_malloc_r+0x29c>
    4de8:	e065300a 	rsb	r3, r5, r10
    4dec:	e353000f 	cmp	r3, #15
    4df0:	ca00005d 	bgt	4f6c <_malloc_r+0x414>
    4df4:	e59f9470 	ldr	r9, [pc, #1136]	; 526c <_malloc_r+0x714>
    4df8:	e5973408 	ldr	r3, [r7, #1032]	; 0x408
    4dfc:	e599b000 	ldr	r11, [r9]
    4e00:	e3730001 	cmn	r3, #1
    4e04:	e085b00b 	add	r11, r5, r11
    4e08:	128bba01 	addne	r11, r11, #4096	; 0x1000
    4e0c:	128bb00f 	addne	r11, r11, #15
    4e10:	13cbbeff 	bicne	r11, r11, #4080	; 0xff0
    4e14:	028bb010 	addeq	r11, r11, #16
    4e18:	13cbb00f 	bicne	r11, r11, #15
    4e1c:	e084200a 	add	r2, r4, r10
    4e20:	e1a00006 	mov	r0, r6
    4e24:	e1a0100b 	mov	r1, r11
    4e28:	e58d2004 	str	r2, [sp, #4]
    4e2c:	eb0005a6 	bl	64cc <_sbrk_r>
    4e30:	e3700001 	cmn	r0, #1
    4e34:	e1a08000 	mov	r8, r0
    4e38:	e59d2004 	ldr	r2, [sp, #4]
    4e3c:	0a0000e2 	beq	51cc <_malloc_r+0x674>
    4e40:	e1520000 	cmp	r2, r0
    4e44:	8a0000bf 	bhi	5148 <_malloc_r+0x5f0>
    4e48:	e5993004 	ldr	r3, [r9, #4]
    4e4c:	e1520008 	cmp	r2, r8
    4e50:	e08b3003 	add	r3, r11, r3
    4e54:	e5893004 	str	r3, [r9, #4]
    4e58:	0a0000df 	beq	51dc <_malloc_r+0x684>
    4e5c:	e5971408 	ldr	r1, [r7, #1032]	; 0x408
    4e60:	e3710001 	cmn	r1, #1
    4e64:	10622008 	rsbne	r2, r2, r8
    4e68:	059f33f8 	ldreq	r3, [pc, #1016]	; 5268 <_malloc_r+0x710>
    4e6c:	10833002 	addne	r3, r3, r2
    4e70:	05838408 	streq	r8, [r3, #1032]	; 0x408
    4e74:	15893004 	strne	r3, [r9, #4]
    4e78:	e2183007 	ands	r3, r8, #7
    4e7c:	12632008 	rsbne	r2, r3, #8
    4e80:	10888002 	addne	r8, r8, r2
    4e84:	12633a01 	rsbne	r3, r3, #4096	; 0x1000
    4e88:	12832008 	addne	r2, r3, #8
    4e8c:	e088300b 	add	r3, r8, r11
    4e90:	03a02a01 	moveq	r2, #4096	; 0x1000
    4e94:	e1a03a03 	lsl	r3, r3, #20
    4e98:	e042ba23 	sub	r11, r2, r3, lsr #20
    4e9c:	e1a0100b 	mov	r1, r11
    4ea0:	e1a00006 	mov	r0, r6
    4ea4:	eb000588 	bl	64cc <_sbrk_r>
    4ea8:	e3700001 	cmn	r0, #1
    4eac:	10682000 	rsbne	r2, r8, r0
    4eb0:	e5993004 	ldr	r3, [r9, #4]
    4eb4:	108b2002 	addne	r2, r11, r2
    4eb8:	03a0b000 	moveq	r11, #0
    4ebc:	13822001 	orrne	r2, r2, #1
    4ec0:	03a02001 	moveq	r2, #1
    4ec4:	e08b3003 	add	r3, r11, r3
    4ec8:	e1540007 	cmp	r4, r7
    4ecc:	e5893004 	str	r3, [r9, #4]
    4ed0:	e5878008 	str	r8, [r7, #8]
    4ed4:	e5882004 	str	r2, [r8, #4]
    4ed8:	0a00000d 	beq	4f14 <_malloc_r+0x3bc>
    4edc:	e35a000f 	cmp	r10, #15
    4ee0:	9a0000ac 	bls	5198 <_malloc_r+0x640>
    4ee4:	e594c004 	ldr	r12, [r4, #4]
    4ee8:	e24a200c 	sub	r2, r10, #12
    4eec:	e3c22007 	bic	r2, r2, #7
    4ef0:	e20cc001 	and	r12, r12, #1
    4ef4:	e0841002 	add	r1, r4, r2
    4ef8:	e3a00005 	mov	r0, #5
    4efc:	e182c00c 	orr	r12, r2, r12
    4f00:	e352000f 	cmp	r2, #15
    4f04:	e584c004 	str	r12, [r4, #4]
    4f08:	e5810004 	str	r0, [r1, #4]
    4f0c:	e5810008 	str	r0, [r1, #8]
    4f10:	8a0000b8 	bhi	51f8 <_malloc_r+0x6a0>
    4f14:	e599202c 	ldr	r2, [r9, #44]	; 0x2c
    4f18:	e1530002 	cmp	r3, r2
    4f1c:	859f2348 	ldrhi	r2, [pc, #840]	; 526c <_malloc_r+0x714>
    4f20:	8582302c 	strhi	r3, [r2, #44]	; 0x2c
    4f24:	e5992030 	ldr	r2, [r9, #48]	; 0x30
    4f28:	e5974008 	ldr	r4, [r7, #8]
    4f2c:	e1530002 	cmp	r3, r2
    4f30:	95943004 	ldrls	r3, [r4, #4]
    4f34:	85942004 	ldrhi	r2, [r4, #4]
    4f38:	859f132c 	ldrhi	r1, [pc, #812]	; 526c <_malloc_r+0x714>
    4f3c:	93c33003 	bicls	r3, r3, #3
    4f40:	85813030 	strhi	r3, [r1, #48]	; 0x30
    4f44:	83c23003 	bichi	r3, r2, #3
    4f48:	e1550003 	cmp	r5, r3
    4f4c:	e0653003 	rsb	r3, r5, r3
    4f50:	8a000001 	bhi	4f5c <_malloc_r+0x404>
    4f54:	e353000f 	cmp	r3, #15
    4f58:	ca000003 	bgt	4f6c <_malloc_r+0x414>
    4f5c:	e1a00006 	mov	r0, r6
    4f60:	eb00018e 	bl	55a0 <__malloc_unlock>
    4f64:	e3a04000 	mov	r4, #0
    4f68:	eaffff21 	b	4bf4 <_malloc_r+0x9c>
    4f6c:	e0842005 	add	r2, r4, r5
    4f70:	e3833001 	orr	r3, r3, #1
    4f74:	e3855001 	orr	r5, r5, #1
    4f78:	e5845004 	str	r5, [r4, #4]
    4f7c:	e1a00006 	mov	r0, r6
    4f80:	e5823004 	str	r3, [r2, #4]
    4f84:	e5872008 	str	r2, [r7, #8]
    4f88:	e2844008 	add	r4, r4, #8
    4f8c:	eb000183 	bl	55a0 <__malloc_unlock>
    4f90:	eaffff17 	b	4bf4 <_malloc_r+0x9c>
    4f94:	e0842002 	add	r2, r4, r2
    4f98:	e5920004 	ldr	r0, [r2, #4]
    4f9c:	e2841008 	add	r1, r4, #8
    4fa0:	e891000a 	ldm	r1, {r1, r3}
    4fa4:	e3800001 	orr	r0, r0, #1
    4fa8:	e5820004 	str	r0, [r2, #4]
    4fac:	e581300c 	str	r3, [r1, #12]
    4fb0:	e5831008 	str	r1, [r3, #8]
    4fb4:	e1a00006 	mov	r0, r6
    4fb8:	eb000178 	bl	55a0 <__malloc_unlock>
    4fbc:	e2844008 	add	r4, r4, #8
    4fc0:	eaffff0b 	b	4bf4 <_malloc_r+0x9c>
    4fc4:	e35e0014 	cmp	lr, #20
    4fc8:	928ee05b 	addls	lr, lr, #91	; 0x5b
    4fcc:	91a0108e 	lslls	r1, lr, #1
    4fd0:	9affff0f 	bls	4c14 <_malloc_r+0xbc>
    4fd4:	e35e0054 	cmp	lr, #84	; 0x54
    4fd8:	8a000061 	bhi	5164 <_malloc_r+0x60c>
    4fdc:	e1a0e625 	lsr	lr, r5, #12
    4fe0:	e28ee06e 	add	lr, lr, #110	; 0x6e
    4fe4:	e1a0108e 	lsl	r1, lr, #1
    4fe8:	eaffff09 	b	4c14 <_malloc_r+0xbc>
    4fec:	e1a034a2 	lsr	r3, r2, #9
    4ff0:	e3530004 	cmp	r3, #4
    4ff4:	9a00004f 	bls	5138 <_malloc_r+0x5e0>
    4ff8:	e3530014 	cmp	r3, #20
    4ffc:	9283a05b 	addls	r10, r3, #91	; 0x5b
    5000:	91a0008a 	lslls	r0, r10, #1
    5004:	9a000004 	bls	501c <_malloc_r+0x4c4>
    5008:	e3530054 	cmp	r3, #84	; 0x54
    500c:	8a00007f 	bhi	5210 <_malloc_r+0x6b8>
    5010:	e1a0a622 	lsr	r10, r2, #12
    5014:	e28aa06e 	add	r10, r10, #110	; 0x6e
    5018:	e1a0008a 	lsl	r0, r10, #1
    501c:	e0870100 	add	r0, r7, r0, lsl #2
    5020:	e5903008 	ldr	r3, [r0, #8]
    5024:	e1530000 	cmp	r3, r0
    5028:	e59fc238 	ldr	r12, [pc, #568]	; 5268 <_malloc_r+0x710>
    502c:	0a000052 	beq	517c <_malloc_r+0x624>
    5030:	e5931004 	ldr	r1, [r3, #4]
    5034:	e3c11003 	bic	r1, r1, #3
    5038:	e1520001 	cmp	r2, r1
    503c:	2a000002 	bcs	504c <_malloc_r+0x4f4>
    5040:	e5933008 	ldr	r3, [r3, #8]
    5044:	e1500003 	cmp	r0, r3
    5048:	1afffff8 	bne	5030 <_malloc_r+0x4d8>
    504c:	e593200c 	ldr	r2, [r3, #12]
    5050:	e5971004 	ldr	r1, [r7, #4]
    5054:	e584200c 	str	r2, [r4, #12]
    5058:	e5843008 	str	r3, [r4, #8]
    505c:	e583400c 	str	r4, [r3, #12]
    5060:	e5824008 	str	r4, [r2, #8]
    5064:	eaffff19 	b	4cd0 <_malloc_r+0x178>
    5068:	e0842005 	add	r2, r4, r5
    506c:	e3810001 	orr	r0, r1, #1
    5070:	e3855001 	orr	r5, r5, #1
    5074:	e5845004 	str	r5, [r4, #4]
    5078:	e5832014 	str	r2, [r3, #20]
    507c:	e5832010 	str	r2, [r3, #16]
    5080:	e582800c 	str	r8, [r2, #12]
    5084:	e9820101 	stmib	r2, {r0, r8}
    5088:	e7821001 	str	r1, [r2, r1]
    508c:	e1a00006 	mov	r0, r6
    5090:	eb000142 	bl	55a0 <__malloc_unlock>
    5094:	e2844008 	add	r4, r4, #8
    5098:	eafffed5 	b	4bf4 <_malloc_r+0x9c>
    509c:	e2844001 	add	r4, r4, #1
    50a0:	e3140003 	tst	r4, #3
    50a4:	e28cc008 	add	r12, r12, #8
    50a8:	1affff1b 	bne	4d1c <_malloc_r+0x1c4>
    50ac:	e31e0003 	tst	lr, #3
    50b0:	e24a3008 	sub	r3, r10, #8
    50b4:	0a000062 	beq	5244 <_malloc_r+0x6ec>
    50b8:	e59aa000 	ldr	r10, [r10]
    50bc:	e15a0003 	cmp	r10, r3
    50c0:	e24ee001 	sub	lr, lr, #1
    50c4:	0afffff8 	beq	50ac <_malloc_r+0x554>
    50c8:	e5973004 	ldr	r3, [r7, #4]
    50cc:	e1a00080 	lsl	r0, r0, #1
    50d0:	e1500003 	cmp	r0, r3
    50d4:	8affff3e 	bhi	4dd4 <_malloc_r+0x27c>
    50d8:	e3500000 	cmp	r0, #0
    50dc:	0affff3c 	beq	4dd4 <_malloc_r+0x27c>
    50e0:	e1130000 	tst	r3, r0
    50e4:	0a00005a 	beq	5254 <_malloc_r+0x6fc>
    50e8:	e1a0e004 	mov	lr, r4
    50ec:	eaffff07 	b	4d10 <_malloc_r+0x1b8>
    50f0:	e2843008 	add	r3, r4, #8
    50f4:	e5944014 	ldr	r4, [r4, #20]
    50f8:	e1530004 	cmp	r3, r4
    50fc:	028ee002 	addeq	lr, lr, #2
    5100:	0afffed5 	beq	4c5c <_malloc_r+0x104>
    5104:	eafffead 	b	4bc0 <_malloc_r+0x68>
    5108:	e0831001 	add	r1, r3, r1
    510c:	e5910004 	ldr	r0, [r1, #4]
    5110:	e1a04003 	mov	r4, r3
    5114:	e5b42008 	ldr	r2, [r4, #8]!
    5118:	e593300c 	ldr	r3, [r3, #12]
    511c:	e3800001 	orr	r0, r0, #1
    5120:	e5810004 	str	r0, [r1, #4]
    5124:	e582300c 	str	r3, [r2, #12]
    5128:	e5832008 	str	r2, [r3, #8]
    512c:	e1a00006 	mov	r0, r6
    5130:	eb00011a 	bl	55a0 <__malloc_unlock>
    5134:	eafffeae 	b	4bf4 <_malloc_r+0x9c>
    5138:	e1a0a322 	lsr	r10, r2, #6
    513c:	e28aa038 	add	r10, r10, #56	; 0x38
    5140:	e1a0008a 	lsl	r0, r10, #1
    5144:	eaffffb4 	b	501c <_malloc_r+0x4c4>
    5148:	e1540007 	cmp	r4, r7
    514c:	0affff3d 	beq	4e48 <_malloc_r+0x2f0>
    5150:	e59f3110 	ldr	r3, [pc, #272]	; 5268 <_malloc_r+0x710>
    5154:	e5934008 	ldr	r4, [r3, #8]
    5158:	e5943004 	ldr	r3, [r4, #4]
    515c:	e3c33003 	bic	r3, r3, #3
    5160:	eaffff78 	b	4f48 <_malloc_r+0x3f0>
    5164:	e35e0f55 	cmp	lr, #340	; 0x154
    5168:	8a00000f 	bhi	51ac <_malloc_r+0x654>
    516c:	e1a0e7a5 	lsr	lr, r5, #15
    5170:	e28ee077 	add	lr, lr, #119	; 0x77
    5174:	e1a0108e 	lsl	r1, lr, #1
    5178:	eafffea5 	b	4c14 <_malloc_r+0xbc>
    517c:	e59c2004 	ldr	r2, [r12, #4]
    5180:	e1a0a14a 	asr	r10, r10, #2
    5184:	e3a01001 	mov	r1, #1
    5188:	e1821a11 	orr	r1, r2, r1, lsl r10
    518c:	e1a02003 	mov	r2, r3
    5190:	e58c1004 	str	r1, [r12, #4]
    5194:	eaffffae 	b	5054 <_malloc_r+0x4fc>
    5198:	e3a03001 	mov	r3, #1
    519c:	e5883004 	str	r3, [r8, #4]
    51a0:	e1a04008 	mov	r4, r8
    51a4:	e3a03000 	mov	r3, #0
    51a8:	eaffff66 	b	4f48 <_malloc_r+0x3f0>
    51ac:	e59f30bc 	ldr	r3, [pc, #188]	; 5270 <_malloc_r+0x718>
    51b0:	e15e0003 	cmp	lr, r3
    51b4:	91a0e925 	lsrls	lr, r5, #18
    51b8:	928ee07c 	addls	lr, lr, #124	; 0x7c
    51bc:	91a0108e 	lslls	r1, lr, #1
    51c0:	83a010fc 	movhi	r1, #252	; 0xfc
    51c4:	83a0e07e 	movhi	lr, #126	; 0x7e
    51c8:	eafffe91 	b	4c14 <_malloc_r+0xbc>
    51cc:	e5974008 	ldr	r4, [r7, #8]
    51d0:	e5943004 	ldr	r3, [r4, #4]
    51d4:	e3c33003 	bic	r3, r3, #3
    51d8:	eaffff5a 	b	4f48 <_malloc_r+0x3f0>
    51dc:	e1b01a02 	lsls	r1, r2, #20
    51e0:	1affff1d 	bne	4e5c <_malloc_r+0x304>
    51e4:	e5972008 	ldr	r2, [r7, #8]
    51e8:	e08b100a 	add	r1, r11, r10
    51ec:	e3811001 	orr	r1, r1, #1
    51f0:	e5821004 	str	r1, [r2, #4]
    51f4:	eaffff46 	b	4f14 <_malloc_r+0x3bc>
    51f8:	e1a00006 	mov	r0, r6
    51fc:	e2841008 	add	r1, r4, #8
    5200:	eb000a52 	bl	7b50 <_free_r>
    5204:	e59f3060 	ldr	r3, [pc, #96]	; 526c <_malloc_r+0x714>
    5208:	e5933004 	ldr	r3, [r3, #4]
    520c:	eaffff40 	b	4f14 <_malloc_r+0x3bc>
    5210:	e3530f55 	cmp	r3, #340	; 0x154
    5214:	91a0a7a2 	lsrls	r10, r2, #15
    5218:	928aa077 	addls	r10, r10, #119	; 0x77
    521c:	91a0008a 	lslls	r0, r10, #1
    5220:	9affff7d 	bls	501c <_malloc_r+0x4c4>
    5224:	e59f1044 	ldr	r1, [pc, #68]	; 5270 <_malloc_r+0x718>
    5228:	e1530001 	cmp	r3, r1
    522c:	91a0a922 	lsrls	r10, r2, #18
    5230:	928aa07c 	addls	r10, r10, #124	; 0x7c
    5234:	91a0008a 	lslls	r0, r10, #1
    5238:	83a000fc 	movhi	r0, #252	; 0xfc
    523c:	83a0a07e 	movhi	r10, #126	; 0x7e
    5240:	eaffff75 	b	501c <_malloc_r+0x4c4>
    5244:	e5973004 	ldr	r3, [r7, #4]
    5248:	e1c33000 	bic	r3, r3, r0
    524c:	e5873004 	str	r3, [r7, #4]
    5250:	eaffff9d 	b	50cc <_malloc_r+0x574>
    5254:	e1a00080 	lsl	r0, r0, #1
    5258:	e1130000 	tst	r3, r0
    525c:	e2844004 	add	r4, r4, #4
    5260:	1affffa0 	bne	50e8 <_malloc_r+0x590>
    5264:	eafffffa 	b	5254 <_malloc_r+0x6fc>
    5268:	0000a554 	.word	0x0000a554
    526c:	0000a9a0 	.word	0x0000a9a0
    5270:	00000554 	.word	0x00000554

00005274 <memchr>:
    5274:	e3100003 	tst	r0, #3
    5278:	e92d0070 	push	{r4, r5, r6}
    527c:	e20110ff 	and	r1, r1, #255	; 0xff
    5280:	0a00003c 	beq	5378 <memchr+0x104>
    5284:	e3520000 	cmp	r2, #0
    5288:	e242c001 	sub	r12, r2, #1
    528c:	0a00003b 	beq	5380 <memchr+0x10c>
    5290:	e5d03000 	ldrb	r3, [r0]
    5294:	e1530001 	cmp	r3, r1
    5298:	0a00001f 	beq	531c <memchr+0xa8>
    529c:	e2803001 	add	r3, r0, #1
    52a0:	ea000006 	b	52c0 <memchr+0x4c>
    52a4:	e35c0000 	cmp	r12, #0
    52a8:	0a00001d 	beq	5324 <memchr+0xb0>
    52ac:	e5d02000 	ldrb	r2, [r0]
    52b0:	e1520001 	cmp	r2, r1
    52b4:	e2833001 	add	r3, r3, #1
    52b8:	e24cc001 	sub	r12, r12, #1
    52bc:	0a000016 	beq	531c <memchr+0xa8>
    52c0:	e3130003 	tst	r3, #3
    52c4:	e1a00003 	mov	r0, r3
    52c8:	1afffff5 	bne	52a4 <memchr+0x30>
    52cc:	e35c0003 	cmp	r12, #3
    52d0:	8a000015 	bhi	532c <memchr+0xb8>
    52d4:	e35c0000 	cmp	r12, #0
    52d8:	e24c4001 	sub	r4, r12, #1
    52dc:	0a000010 	beq	5324 <memchr+0xb0>
    52e0:	e5d03000 	ldrb	r3, [r0]
    52e4:	e1530001 	cmp	r3, r1
    52e8:	0a00000b 	beq	531c <memchr+0xa8>
    52ec:	e2802001 	add	r2, r0, #1
    52f0:	e3a03000 	mov	r3, #0
    52f4:	ea000004 	b	530c <memchr+0x98>
    52f8:	e5d0c000 	ldrb	r12, [r0]
    52fc:	e15c0001 	cmp	r12, r1
    5300:	e2822001 	add	r2, r2, #1
    5304:	e2833001 	add	r3, r3, #1
    5308:	0a000003 	beq	531c <memchr+0xa8>
    530c:	e1540003 	cmp	r4, r3
    5310:	e1a00002 	mov	r0, r2
    5314:	1afffff7 	bne	52f8 <memchr+0x84>
    5318:	e3a00000 	mov	r0, #0
    531c:	e8bd0070 	pop	{r4, r5, r6}
    5320:	e12fff1e 	bx	lr
    5324:	e1a0000c 	mov	r0, r12
    5328:	eafffffb 	b	531c <memchr+0xa8>
    532c:	e1816401 	orr	r6, r1, r1, lsl #8
    5330:	e1866806 	orr	r6, r6, r6, lsl #16
    5334:	e5903000 	ldr	r3, [r0]
    5338:	e59f4048 	ldr	r4, [pc, #72]	; 5388 <memchr+0x114>
    533c:	e0263003 	eor	r3, r6, r3
    5340:	e0834004 	add	r4, r3, r4
    5344:	e59f2040 	ldr	r2, [pc, #64]	; 538c <memchr+0x118>
    5348:	e1c44003 	bic	r4, r4, r3
    534c:	e0042002 	and	r2, r4, r2
    5350:	e3520000 	cmp	r2, #0
    5354:	e1a05000 	mov	r5, r0
    5358:	e2800004 	add	r0, r0, #4
    535c:	1a000003 	bne	5370 <memchr+0xfc>
    5360:	e24cc004 	sub	r12, r12, #4
    5364:	e35c0003 	cmp	r12, #3
    5368:	8afffff1 	bhi	5334 <memchr+0xc0>
    536c:	eaffffd8 	b	52d4 <memchr+0x60>
    5370:	e1a00005 	mov	r0, r5
    5374:	eaffffd6 	b	52d4 <memchr+0x60>
    5378:	e1a0c002 	mov	r12, r2
    537c:	eaffffd2 	b	52cc <memchr+0x58>
    5380:	e1a00002 	mov	r0, r2
    5384:	eaffffe4 	b	531c <memchr+0xa8>
    5388:	fefefeff 	.word	0xfefefeff
    538c:	80808080 	.word	0x80808080

00005390 <memcpy>:
    5390:	e3520003 	cmp	r2, #3
    5394:	e92d01f0 	push	{r4, r5, r6, r7, r8}
    5398:	8a000009 	bhi	53c4 <memcpy+0x34>
    539c:	e3520000 	cmp	r2, #0
    53a0:	0a000005 	beq	53bc <memcpy+0x2c>
    53a4:	e3a03000 	mov	r3, #0
    53a8:	e7d1c003 	ldrb	r12, [r1, r3]
    53ac:	e7c0c003 	strb	r12, [r0, r3]
    53b0:	e2833001 	add	r3, r3, #1
    53b4:	e1530002 	cmp	r3, r2
    53b8:	1afffffa 	bne	53a8 <memcpy+0x18>
    53bc:	e8bd01f0 	pop	{r4, r5, r6, r7, r8}
    53c0:	e12fff1e 	bx	lr
    53c4:	e3100003 	tst	r0, #3
    53c8:	e0802002 	add	r2, r0, r2
    53cc:	0a00000b 	beq	5400 <memcpy+0x70>
    53d0:	e280c001 	add	r12, r0, #1
    53d4:	e2814001 	add	r4, r1, #1
    53d8:	e20c3003 	and	r3, r12, #3
    53dc:	e5545001 	ldrb	r5, [r4, #-1]
    53e0:	e3530000 	cmp	r3, #0
    53e4:	e1a01004 	mov	r1, r4
    53e8:	e1a0300c 	mov	r3, r12
    53ec:	e54c5001 	strb	r5, [r12, #-1]
    53f0:	e2844001 	add	r4, r4, #1
    53f4:	e28cc001 	add	r12, r12, #1
    53f8:	1afffff6 	bne	53d8 <memcpy+0x48>
    53fc:	ea000000 	b	5404 <memcpy+0x74>
    5400:	e1a03000 	mov	r3, r0
    5404:	e211c003 	ands	r12, r1, #3
    5408:	1a00004f 	bne	554c <memcpy+0x1bc>
    540c:	e063c002 	rsb	r12, r3, r2
    5410:	e35c003f 	cmp	r12, #63	; 0x3f
    5414:	da000024 	ble	54ac <memcpy+0x11c>
    5418:	e591c000 	ldr	r12, [r1]
    541c:	e583c000 	str	r12, [r3]
    5420:	e591c004 	ldr	r12, [r1, #4]
    5424:	e583c004 	str	r12, [r3, #4]
    5428:	e591c008 	ldr	r12, [r1, #8]
    542c:	e583c008 	str	r12, [r3, #8]
    5430:	e591c00c 	ldr	r12, [r1, #12]
    5434:	e583c00c 	str	r12, [r3, #12]
    5438:	e591c010 	ldr	r12, [r1, #16]
    543c:	e583c010 	str	r12, [r3, #16]
    5440:	e591c014 	ldr	r12, [r1, #20]
    5444:	e583c014 	str	r12, [r3, #20]
    5448:	e591c018 	ldr	r12, [r1, #24]
    544c:	e583c018 	str	r12, [r3, #24]
    5450:	e591c01c 	ldr	r12, [r1, #28]
    5454:	e583c01c 	str	r12, [r3, #28]
    5458:	e591c020 	ldr	r12, [r1, #32]
    545c:	e583c020 	str	r12, [r3, #32]
    5460:	e591c024 	ldr	r12, [r1, #36]	; 0x24
    5464:	e583c024 	str	r12, [r3, #36]	; 0x24
    5468:	e591c028 	ldr	r12, [r1, #40]	; 0x28
    546c:	e583c028 	str	r12, [r3, #40]	; 0x28
    5470:	e591c02c 	ldr	r12, [r1, #44]	; 0x2c
    5474:	e583c02c 	str	r12, [r3, #44]	; 0x2c
    5478:	e591c030 	ldr	r12, [r1, #48]	; 0x30
    547c:	e583c030 	str	r12, [r3, #48]	; 0x30
    5480:	e591c034 	ldr	r12, [r1, #52]	; 0x34
    5484:	e583c034 	str	r12, [r3, #52]	; 0x34
    5488:	e591c038 	ldr	r12, [r1, #56]	; 0x38
    548c:	e583c038 	str	r12, [r3, #56]	; 0x38
    5490:	e591c03c 	ldr	r12, [r1, #60]	; 0x3c
    5494:	e2833040 	add	r3, r3, #64	; 0x40
    5498:	e503c004 	str	r12, [r3, #-4]
    549c:	e063c002 	rsb	r12, r3, r2
    54a0:	e35c003f 	cmp	r12, #63	; 0x3f
    54a4:	e2811040 	add	r1, r1, #64	; 0x40
    54a8:	caffffda 	bgt	5418 <memcpy+0x88>
    54ac:	e35c000f 	cmp	r12, #15
    54b0:	da00000c 	ble	54e8 <memcpy+0x158>
    54b4:	e591c000 	ldr	r12, [r1]
    54b8:	e583c000 	str	r12, [r3]
    54bc:	e591c004 	ldr	r12, [r1, #4]
    54c0:	e583c004 	str	r12, [r3, #4]
    54c4:	e591c008 	ldr	r12, [r1, #8]
    54c8:	e583c008 	str	r12, [r3, #8]
    54cc:	e591c00c 	ldr	r12, [r1, #12]
    54d0:	e2833010 	add	r3, r3, #16
    54d4:	e503c004 	str	r12, [r3, #-4]
    54d8:	e063c002 	rsb	r12, r3, r2
    54dc:	e35c000f 	cmp	r12, #15
    54e0:	e2811010 	add	r1, r1, #16
    54e4:	cafffff2 	bgt	54b4 <memcpy+0x124>
    54e8:	e35c0003 	cmp	r12, #3
    54ec:	da00000a 	ble	551c <memcpy+0x18c>
    54f0:	e283c004 	add	r12, r3, #4
    54f4:	e2814004 	add	r4, r1, #4
    54f8:	e06c3002 	rsb	r3, r12, r2
    54fc:	e5145004 	ldr	r5, [r4, #-4]
    5500:	e3530003 	cmp	r3, #3
    5504:	e1a01004 	mov	r1, r4
    5508:	e1a0300c 	mov	r3, r12
    550c:	e50c5004 	str	r5, [r12, #-4]
    5510:	e2844004 	add	r4, r4, #4
    5514:	e28cc004 	add	r12, r12, #4
    5518:	cafffff6 	bgt	54f8 <memcpy+0x168>
    551c:	e1520003 	cmp	r2, r3
    5520:	82833001 	addhi	r3, r3, #1
    5524:	82811001 	addhi	r1, r1, #1
    5528:	82822001 	addhi	r2, r2, #1
    552c:	9affffa2 	bls	53bc <memcpy+0x2c>
    5530:	e551c001 	ldrb	r12, [r1, #-1]
    5534:	e2833001 	add	r3, r3, #1
    5538:	e1530002 	cmp	r3, r2
    553c:	e543c002 	strb	r12, [r3, #-2]
    5540:	e2811001 	add	r1, r1, #1
    5544:	1afffff9 	bne	5530 <memcpy+0x1a0>
    5548:	eaffff9b 	b	53bc <memcpy+0x2c>
    554c:	e0635002 	rsb	r5, r3, r2
    5550:	e06c4001 	rsb	r4, r12, r1
    5554:	e3550003 	cmp	r5, #3
    5558:	e5945000 	ldr	r5, [r4]
    555c:	daffffee 	ble	551c <memcpy+0x18c>
    5560:	e26c6004 	rsb	r6, r12, #4
    5564:	e1a0718c 	lsl	r7, r12, #3
    5568:	e1a06186 	lsl	r6, r6, #3
    556c:	e283c004 	add	r12, r3, #4
    5570:	e1a08735 	lsr	r8, r5, r7
    5574:	e5b45004 	ldr	r5, [r4, #4]!
    5578:	e1888615 	orr	r8, r8, r5, lsl r6
    557c:	e06c3002 	rsb	r3, r12, r2
    5580:	e3530003 	cmp	r3, #3
    5584:	e50c8004 	str	r8, [r12, #-4]
    5588:	e1a0300c 	mov	r3, r12
    558c:	e2811004 	add	r1, r1, #4
    5590:	e28cc004 	add	r12, r12, #4
    5594:	cafffff5 	bgt	5570 <memcpy+0x1e0>
    5598:	eaffffdf 	b	551c <memcpy+0x18c>

0000559c <__malloc_lock>:
    559c:	e12fff1e 	bx	lr

000055a0 <__malloc_unlock>:
    55a0:	e12fff1e 	bx	lr

000055a4 <_Balloc>:
    55a4:	e590304c 	ldr	r3, [r0, #76]	; 0x4c
    55a8:	e3530000 	cmp	r3, #0
    55ac:	e92d4070 	push	{r4, r5, r6, lr}
    55b0:	e1a05000 	mov	r5, r0
    55b4:	e1a04001 	mov	r4, r1
    55b8:	0a000009 	beq	55e4 <_Balloc+0x40>
    55bc:	e7930104 	ldr	r0, [r3, r4, lsl #2]
    55c0:	e3500000 	cmp	r0, #0
    55c4:	0a00000f 	beq	5608 <_Balloc+0x64>
    55c8:	e5902000 	ldr	r2, [r0]
    55cc:	e7832104 	str	r2, [r3, r4, lsl #2]
    55d0:	e3a03000 	mov	r3, #0
    55d4:	e5803010 	str	r3, [r0, #16]
    55d8:	e580300c 	str	r3, [r0, #12]
    55dc:	e8bd4070 	pop	{r4, r5, r6, lr}
    55e0:	e12fff1e 	bx	lr
    55e4:	e3a01004 	mov	r1, #4
    55e8:	e3a02021 	mov	r2, #33	; 0x21
    55ec:	eb0008f3 	bl	79c0 <_calloc_r>
    55f0:	e3500000 	cmp	r0, #0
    55f4:	e1a03000 	mov	r3, r0
    55f8:	e585004c 	str	r0, [r5, #76]	; 0x4c
    55fc:	1affffee 	bne	55bc <_Balloc+0x18>
    5600:	e3a00000 	mov	r0, #0
    5604:	eafffff4 	b	55dc <_Balloc+0x38>
    5608:	e3a01001 	mov	r1, #1
    560c:	e1a06411 	lsl	r6, r1, r4
    5610:	e2862005 	add	r2, r6, #5
    5614:	e1a00005 	mov	r0, r5
    5618:	e1a02102 	lsl	r2, r2, #2
    561c:	eb0008e7 	bl	79c0 <_calloc_r>
    5620:	e3500000 	cmp	r0, #0
    5624:	0afffff5 	beq	5600 <_Balloc+0x5c>
    5628:	e9800050 	stmib	r0, {r4, r6}
    562c:	eaffffe7 	b	55d0 <_Balloc+0x2c>

00005630 <_Bfree>:
    5630:	e3510000 	cmp	r1, #0
    5634:	1590304c 	ldrne	r3, [r0, #76]	; 0x4c
    5638:	15912004 	ldrne	r2, [r1, #4]
    563c:	17930102 	ldrne	r0, [r3, r2, lsl #2]
    5640:	15810000 	strne	r0, [r1]
    5644:	17831102 	strne	r1, [r3, r2, lsl #2]
    5648:	e12fff1e 	bx	lr

0000564c <__multadd>:
    564c:	e92d45f0 	push	{r4, r5, r6, r7, r8, r10, lr}
    5650:	e5917010 	ldr	r7, [r1, #16]
    5654:	e24dd00c 	sub	sp, sp, #12
    5658:	e1a08001 	mov	r8, r1
    565c:	e1a0a000 	mov	r10, r0
    5660:	e2814014 	add	r4, r1, #20
    5664:	e3a0c000 	mov	r12, #0
    5668:	e5946000 	ldr	r6, [r4]
    566c:	e1a05806 	lsl	r5, r6, #16
    5670:	e1a05825 	lsr	r5, r5, #16
    5674:	e0253592 	mla	r5, r2, r5, r3
    5678:	e1a03826 	lsr	r3, r6, #16
    567c:	e0030392 	mul	r3, r2, r3
    5680:	e1a01805 	lsl	r1, r5, #16
    5684:	e0833825 	add	r3, r3, r5, lsr #16
    5688:	e1a01821 	lsr	r1, r1, #16
    568c:	e28cc001 	add	r12, r12, #1
    5690:	e0811803 	add	r1, r1, r3, lsl #16
    5694:	e157000c 	cmp	r7, r12
    5698:	e1a03823 	lsr	r3, r3, #16
    569c:	e4841004 	str	r1, [r4], #4
    56a0:	cafffff0 	bgt	5668 <__multadd+0x1c>
    56a4:	e3530000 	cmp	r3, #0
    56a8:	0a000006 	beq	56c8 <__multadd+0x7c>
    56ac:	e5982008 	ldr	r2, [r8, #8]
    56b0:	e1570002 	cmp	r7, r2
    56b4:	aa000007 	bge	56d8 <__multadd+0x8c>
    56b8:	e0882107 	add	r2, r8, r7, lsl #2
    56bc:	e2877001 	add	r7, r7, #1
    56c0:	e5823014 	str	r3, [r2, #20]
    56c4:	e5887010 	str	r7, [r8, #16]
    56c8:	e1a00008 	mov	r0, r8
    56cc:	e28dd00c 	add	sp, sp, #12
    56d0:	e8bd45f0 	pop	{r4, r5, r6, r7, r8, r10, lr}
    56d4:	e12fff1e 	bx	lr
    56d8:	e5981004 	ldr	r1, [r8, #4]
    56dc:	e1a0000a 	mov	r0, r10
    56e0:	e2811001 	add	r1, r1, #1
    56e4:	e58d3004 	str	r3, [sp, #4]
    56e8:	ebffffad 	bl	55a4 <_Balloc>
    56ec:	e5982010 	ldr	r2, [r8, #16]
    56f0:	e2822002 	add	r2, r2, #2
    56f4:	e288100c 	add	r1, r8, #12
    56f8:	e1a04000 	mov	r4, r0
    56fc:	e1a02102 	lsl	r2, r2, #2
    5700:	e280000c 	add	r0, r0, #12
    5704:	ebffff21 	bl	5390 <memcpy>
    5708:	e5981004 	ldr	r1, [r8, #4]
    570c:	e59a204c 	ldr	r2, [r10, #76]	; 0x4c
    5710:	e7920101 	ldr	r0, [r2, r1, lsl #2]
    5714:	e59d3004 	ldr	r3, [sp, #4]
    5718:	e5880000 	str	r0, [r8]
    571c:	e7828101 	str	r8, [r2, r1, lsl #2]
    5720:	e1a08004 	mov	r8, r4
    5724:	eaffffe3 	b	56b8 <__multadd+0x6c>

00005728 <__s2b>:
    5728:	e92d45f8 	push	{r3, r4, r5, r6, r7, r8, r10, lr}
    572c:	e283c008 	add	r12, r3, #8
    5730:	e1a07003 	mov	r7, r3
    5734:	e59f30d8 	ldr	r3, [pc, #216]	; 5814 <__s2b+0xec>
    5738:	e0c3e39c 	smull	lr, r3, r12, r3
    573c:	e1a0cfcc 	asr	r12, r12, #31
    5740:	e06c30c3 	rsb	r3, r12, r3, asr #1
    5744:	e3530001 	cmp	r3, #1
    5748:	e1a05000 	mov	r5, r0
    574c:	e1a04001 	mov	r4, r1
    5750:	e1a08002 	mov	r8, r2
    5754:	da00002c 	ble	580c <__s2b+0xe4>
    5758:	e3a0c001 	mov	r12, #1
    575c:	e3a01000 	mov	r1, #0
    5760:	e1a0c08c 	lsl	r12, r12, #1
    5764:	e153000c 	cmp	r3, r12
    5768:	e2811001 	add	r1, r1, #1
    576c:	cafffffb 	bgt	5760 <__s2b+0x38>
    5770:	e1a00005 	mov	r0, r5
    5774:	ebffff8a 	bl	55a4 <_Balloc>
    5778:	e59d3020 	ldr	r3, [sp, #32]
    577c:	e3580009 	cmp	r8, #9
    5780:	e5803014 	str	r3, [r0, #20]
    5784:	e3a03001 	mov	r3, #1
    5788:	e1a01000 	mov	r1, r0
    578c:	e5803010 	str	r3, [r0, #16]
    5790:	d284400a 	addle	r4, r4, #10
    5794:	d3a08009 	movle	r8, #9
    5798:	da00000c 	ble	57d0 <__s2b+0xa8>
    579c:	e284a009 	add	r10, r4, #9
    57a0:	e1a0600a 	mov	r6, r10
    57a4:	e0844008 	add	r4, r4, r8
    57a8:	e4d63001 	ldrb	r3, [r6], #1
    57ac:	e1a00005 	mov	r0, r5
    57b0:	e3a0200a 	mov	r2, #10
    57b4:	e2433030 	sub	r3, r3, #48	; 0x30
    57b8:	ebffffa3 	bl	564c <__multadd>
    57bc:	e1560004 	cmp	r6, r4
    57c0:	e1a01000 	mov	r1, r0
    57c4:	1afffff7 	bne	57a8 <__s2b+0x80>
    57c8:	e08a4008 	add	r4, r10, r8
    57cc:	e2444008 	sub	r4, r4, #8
    57d0:	e1570008 	cmp	r7, r8
    57d4:	da000009 	ble	5800 <__s2b+0xd8>
    57d8:	e0687007 	rsb	r7, r8, r7
    57dc:	e0847007 	add	r7, r4, r7
    57e0:	e4d43001 	ldrb	r3, [r4], #1
    57e4:	e1a00005 	mov	r0, r5
    57e8:	e3a0200a 	mov	r2, #10
    57ec:	e2433030 	sub	r3, r3, #48	; 0x30
    57f0:	ebffff95 	bl	564c <__multadd>
    57f4:	e1540007 	cmp	r4, r7
    57f8:	e1a01000 	mov	r1, r0
    57fc:	1afffff7 	bne	57e0 <__s2b+0xb8>
    5800:	e1a00001 	mov	r0, r1
    5804:	e8bd45f8 	pop	{r3, r4, r5, r6, r7, r8, r10, lr}
    5808:	e12fff1e 	bx	lr
    580c:	e3a01000 	mov	r1, #0
    5810:	eaffffd6 	b	5770 <__s2b+0x48>
    5814:	38e38e39 	.word	0x38e38e39

00005818 <__hi0bits>:
    5818:	e1b02820 	lsrs	r2, r0, #16
    581c:	e1a03000 	mov	r3, r0
    5820:	01a03800 	lsleq	r3, r0, #16
    5824:	13a00000 	movne	r0, #0
    5828:	03a00010 	moveq	r0, #16
    582c:	e31304ff 	tst	r3, #-16777216	; 0xff000000
    5830:	01a03403 	lsleq	r3, r3, #8
    5834:	02800008 	addeq	r0, r0, #8
    5838:	e313020f 	tst	r3, #-268435456	; 0xf0000000
    583c:	01a03203 	lsleq	r3, r3, #4
    5840:	02800004 	addeq	r0, r0, #4
    5844:	e3130103 	tst	r3, #-1073741824	; 0xc0000000
    5848:	01a03103 	lsleq	r3, r3, #2
    584c:	02800002 	addeq	r0, r0, #2
    5850:	e3530000 	cmp	r3, #0
    5854:	b12fff1e 	bxlt	lr
    5858:	e3130101 	tst	r3, #1073741824	; 0x40000000
    585c:	12800001 	addne	r0, r0, #1
    5860:	03a00020 	moveq	r0, #32
    5864:	e12fff1e 	bx	lr

00005868 <__lo0bits>:
    5868:	e5903000 	ldr	r3, [r0]
    586c:	e1a02000 	mov	r2, r0
    5870:	e2130007 	ands	r0, r3, #7
    5874:	0a000009 	beq	58a0 <__lo0bits+0x38>
    5878:	e3130001 	tst	r3, #1
    587c:	1a00001c 	bne	58f4 <__lo0bits+0x8c>
    5880:	e3130002 	tst	r3, #2
    5884:	11a030a3 	lsrne	r3, r3, #1
    5888:	01a03123 	lsreq	r3, r3, #2
    588c:	13a00001 	movne	r0, #1
    5890:	15823000 	strne	r3, [r2]
    5894:	05823000 	streq	r3, [r2]
    5898:	03a00002 	moveq	r0, #2
    589c:	e12fff1e 	bx	lr
    58a0:	e1b01803 	lsls	r1, r3, #16
    58a4:	01a03823 	lsreq	r3, r3, #16
    58a8:	03a00010 	moveq	r0, #16
    58ac:	e31300ff 	tst	r3, #255	; 0xff
    58b0:	01a03423 	lsreq	r3, r3, #8
    58b4:	02800008 	addeq	r0, r0, #8
    58b8:	e313000f 	tst	r3, #15
    58bc:	01a03223 	lsreq	r3, r3, #4
    58c0:	02800004 	addeq	r0, r0, #4
    58c4:	e3130003 	tst	r3, #3
    58c8:	01a03123 	lsreq	r3, r3, #2
    58cc:	02800002 	addeq	r0, r0, #2
    58d0:	e3130001 	tst	r3, #1
    58d4:	1a000004 	bne	58ec <__lo0bits+0x84>
    58d8:	e1b030a3 	lsrs	r3, r3, #1
    58dc:	1a000001 	bne	58e8 <__lo0bits+0x80>
    58e0:	e3a00020 	mov	r0, #32
    58e4:	e12fff1e 	bx	lr
    58e8:	e2800001 	add	r0, r0, #1
    58ec:	e5823000 	str	r3, [r2]
    58f0:	e12fff1e 	bx	lr
    58f4:	e3a00000 	mov	r0, #0
    58f8:	e12fff1e 	bx	lr

000058fc <__i2b>:
    58fc:	e92d4010 	push	{r4, lr}
    5900:	e1a04001 	mov	r4, r1
    5904:	e3a01001 	mov	r1, #1
    5908:	ebffff25 	bl	55a4 <_Balloc>
    590c:	e3a02001 	mov	r2, #1
    5910:	e5804014 	str	r4, [r0, #20]
    5914:	e5802010 	str	r2, [r0, #16]
    5918:	e8bd4010 	pop	{r4, lr}
    591c:	e12fff1e 	bx	lr

00005920 <__multiply>:
    5920:	e92d4ff0 	push	{r4, r5, r6, r7, r8, r9, r10, r11, lr}
    5924:	e5918010 	ldr	r8, [r1, #16]
    5928:	e592a010 	ldr	r10, [r2, #16]
    592c:	e158000a 	cmp	r8, r10
    5930:	e24dd014 	sub	sp, sp, #20
    5934:	e1a06001 	mov	r6, r1
    5938:	e1a04002 	mov	r4, r2
    593c:	aa000004 	bge	5954 <__multiply+0x34>
    5940:	e1a02008 	mov	r2, r8
    5944:	e1a06004 	mov	r6, r4
    5948:	e1a0800a 	mov	r8, r10
    594c:	e1a04001 	mov	r4, r1
    5950:	e1a0a002 	mov	r10, r2
    5954:	e5963008 	ldr	r3, [r6, #8]
    5958:	e088500a 	add	r5, r8, r10
    595c:	e5961004 	ldr	r1, [r6, #4]
    5960:	e1550003 	cmp	r5, r3
    5964:	c2811001 	addgt	r1, r1, #1
    5968:	ebffff0d 	bl	55a4 <_Balloc>
    596c:	e0807105 	add	r7, r0, r5, lsl #2
    5970:	e2803014 	add	r3, r0, #20
    5974:	e2877014 	add	r7, r7, #20
    5978:	e1530007 	cmp	r3, r7
    597c:	e58d0004 	str	r0, [sp, #4]
    5980:	33a00000 	movcc	r0, #0
    5984:	2a000002 	bcs	5994 <__multiply+0x74>
    5988:	e4830004 	str	r0, [r3], #4
    598c:	e1570003 	cmp	r7, r3
    5990:	8afffffc 	bhi	5988 <__multiply+0x68>
    5994:	e084a10a 	add	r10, r4, r10, lsl #2
    5998:	e28aa014 	add	r10, r10, #20
    599c:	e2844014 	add	r4, r4, #20
    59a0:	e086c108 	add	r12, r6, r8, lsl #2
    59a4:	e154000a 	cmp	r4, r10
    59a8:	e2863014 	add	r3, r6, #20
    59ac:	e28cc014 	add	r12, r12, #20
    59b0:	2a000041 	bcs	5abc <__multiply+0x19c>
    59b4:	e59d2004 	ldr	r2, [sp, #4]
    59b8:	e58d7008 	str	r7, [sp, #8]
    59bc:	e58d500c 	str	r5, [sp, #12]
    59c0:	e2826018 	add	r6, r2, #24
    59c4:	e1a0700a 	mov	r7, r10
    59c8:	e1a05003 	mov	r5, r3
    59cc:	e4948004 	ldr	r8, [r4], #4
    59d0:	e1a0a808 	lsl	r10, r8, #16
    59d4:	e1b0a82a 	lsrs	r10, r10, #16
    59d8:	0a000017 	beq	5a3c <__multiply+0x11c>
    59dc:	e1a02005 	mov	r2, r5
    59e0:	e2463004 	sub	r3, r6, #4
    59e4:	e3a08000 	mov	r8, #0
    59e8:	e4920004 	ldr	r0, [r2], #4
    59ec:	e5931000 	ldr	r1, [r3]
    59f0:	e1a0b800 	lsl	r11, r0, #16
    59f4:	e1a09801 	lsl	r9, r1, #16
    59f8:	e1a0b82b 	lsr	r11, r11, #16
    59fc:	e1a09829 	lsr	r9, r9, #16
    5a00:	e0299b9a 	mla	r9, r10, r11, r9
    5a04:	e1a01821 	lsr	r1, r1, #16
    5a08:	e1a00820 	lsr	r0, r0, #16
    5a0c:	e020109a 	mla	r0, r10, r0, r1
    5a10:	e0898008 	add	r8, r9, r8
    5a14:	e1a01808 	lsl	r1, r8, #16
    5a18:	e1a01821 	lsr	r1, r1, #16
    5a1c:	e0808828 	add	r8, r0, r8, lsr #16
    5a20:	e1811808 	orr	r1, r1, r8, lsl #16
    5a24:	e15c0002 	cmp	r12, r2
    5a28:	e1a08828 	lsr	r8, r8, #16
    5a2c:	e4831004 	str	r1, [r3], #4
    5a30:	8affffec 	bhi	59e8 <__multiply+0xc8>
    5a34:	e5838000 	str	r8, [r3]
    5a38:	e5148004 	ldr	r8, [r4, #-4]
    5a3c:	e1b08828 	lsrs	r8, r8, #16
    5a40:	0a000018 	beq	5aa8 <__multiply+0x188>
    5a44:	e516a004 	ldr	r10, [r6, #-4]
    5a48:	e1a02005 	mov	r2, r5
    5a4c:	e1a03006 	mov	r3, r6
    5a50:	e1a0100a 	mov	r1, r10
    5a54:	e3a09000 	mov	r9, #0
    5a58:	e1d200b0 	ldrh	r0, [r2]
    5a5c:	e1a01821 	lsr	r1, r1, #16
    5a60:	e0211098 	mla	r1, r8, r0, r1
    5a64:	e1a0a80a 	lsl	r10, r10, #16
    5a68:	e0819009 	add	r9, r1, r9
    5a6c:	e1a0a82a 	lsr	r10, r10, #16
    5a70:	e18aa809 	orr	r10, r10, r9, lsl #16
    5a74:	e503a004 	str	r10, [r3, #-4]
    5a78:	e1a0b003 	mov	r11, r3
    5a7c:	e4931004 	ldr	r1, [r3], #4
    5a80:	e492a004 	ldr	r10, [r2], #4
    5a84:	e1a00801 	lsl	r0, r1, #16
    5a88:	e1a0a82a 	lsr	r10, r10, #16
    5a8c:	e1a00820 	lsr	r0, r0, #16
    5a90:	e02a0a98 	mla	r10, r8, r10, r0
    5a94:	e15c0002 	cmp	r12, r2
    5a98:	e08aa829 	add	r10, r10, r9, lsr #16
    5a9c:	e1a0982a 	lsr	r9, r10, #16
    5aa0:	8affffec 	bhi	5a58 <__multiply+0x138>
    5aa4:	e58ba000 	str	r10, [r11]
    5aa8:	e1570004 	cmp	r7, r4
    5aac:	e2866004 	add	r6, r6, #4
    5ab0:	8affffc5 	bhi	59cc <__multiply+0xac>
    5ab4:	e59d7008 	ldr	r7, [sp, #8]
    5ab8:	e59d500c 	ldr	r5, [sp, #12]
    5abc:	e3550000 	cmp	r5, #0
    5ac0:	da000009 	ble	5aec <__multiply+0x1cc>
    5ac4:	e5173004 	ldr	r3, [r7, #-4]
    5ac8:	e3530000 	cmp	r3, #0
    5acc:	e2477004 	sub	r7, r7, #4
    5ad0:	0a000003 	beq	5ae4 <__multiply+0x1c4>
    5ad4:	ea000004 	b	5aec <__multiply+0x1cc>
    5ad8:	e5373004 	ldr	r3, [r7, #-4]!
    5adc:	e3530000 	cmp	r3, #0
    5ae0:	1a000001 	bne	5aec <__multiply+0x1cc>
    5ae4:	e2555001 	subs	r5, r5, #1
    5ae8:	1afffffa 	bne	5ad8 <__multiply+0x1b8>
    5aec:	e59d3004 	ldr	r3, [sp, #4]
    5af0:	e5835010 	str	r5, [r3, #16]
    5af4:	e1a00003 	mov	r0, r3
    5af8:	e28dd014 	add	sp, sp, #20
    5afc:	e8bd4ff0 	pop	{r4, r5, r6, r7, r8, r9, r10, r11, lr}
    5b00:	e12fff1e 	bx	lr

00005b04 <__pow5mult>:
    5b04:	e2123003 	ands	r3, r2, #3
    5b08:	e92d41f0 	push	{r4, r5, r6, r7, r8, lr}
    5b0c:	e1a04002 	mov	r4, r2
    5b10:	e1a08000 	mov	r8, r0
    5b14:	e1a07001 	mov	r7, r1
    5b18:	1a000025 	bne	5bb4 <__pow5mult+0xb0>
    5b1c:	e1b04144 	asrs	r4, r4, #2
    5b20:	0a000018 	beq	5b88 <__pow5mult+0x84>
    5b24:	e5986048 	ldr	r6, [r8, #72]	; 0x48
    5b28:	e3560000 	cmp	r6, #0
    5b2c:	1a000006 	bne	5b4c <__pow5mult+0x48>
    5b30:	ea000026 	b	5bd0 <__pow5mult+0xcc>
    5b34:	e1b040c4 	asrs	r4, r4, #1
    5b38:	0a000012 	beq	5b88 <__pow5mult+0x84>
    5b3c:	e5965000 	ldr	r5, [r6]
    5b40:	e3550000 	cmp	r5, #0
    5b44:	11a06005 	movne	r6, r5
    5b48:	0a000011 	beq	5b94 <__pow5mult+0x90>
    5b4c:	e3140001 	tst	r4, #1
    5b50:	0afffff7 	beq	5b34 <__pow5mult+0x30>
    5b54:	e1a01007 	mov	r1, r7
    5b58:	e1a02006 	mov	r2, r6
    5b5c:	e1a00008 	mov	r0, r8
    5b60:	ebffff6e 	bl	5920 <__multiply>
    5b64:	e3570000 	cmp	r7, #0
    5b68:	15972004 	ldrne	r2, [r7, #4]
    5b6c:	1598304c 	ldrne	r3, [r8, #76]	; 0x4c
    5b70:	17931102 	ldrne	r1, [r3, r2, lsl #2]
    5b74:	15871000 	strne	r1, [r7]
    5b78:	17837102 	strne	r7, [r3, r2, lsl #2]
    5b7c:	e1b040c4 	asrs	r4, r4, #1
    5b80:	e1a07000 	mov	r7, r0
    5b84:	1affffec 	bne	5b3c <__pow5mult+0x38>
    5b88:	e1a00007 	mov	r0, r7
    5b8c:	e8bd41f0 	pop	{r4, r5, r6, r7, r8, lr}
    5b90:	e12fff1e 	bx	lr
    5b94:	e1a01006 	mov	r1, r6
    5b98:	e1a02006 	mov	r2, r6
    5b9c:	e1a00008 	mov	r0, r8
    5ba0:	ebffff5e 	bl	5920 <__multiply>
    5ba4:	e5860000 	str	r0, [r6]
    5ba8:	e5805000 	str	r5, [r0]
    5bac:	e1a06000 	mov	r6, r0
    5bb0:	eaffffe5 	b	5b4c <__pow5mult+0x48>
    5bb4:	e59f2034 	ldr	r2, [pc, #52]	; 5bf0 <__pow5mult+0xec>
    5bb8:	e2433001 	sub	r3, r3, #1
    5bbc:	e7922103 	ldr	r2, [r2, r3, lsl #2]
    5bc0:	e3a03000 	mov	r3, #0
    5bc4:	ebfffea0 	bl	564c <__multadd>
    5bc8:	e1a07000 	mov	r7, r0
    5bcc:	eaffffd2 	b	5b1c <__pow5mult+0x18>
    5bd0:	e1a00008 	mov	r0, r8
    5bd4:	e59f1018 	ldr	r1, [pc, #24]	; 5bf4 <__pow5mult+0xf0>
    5bd8:	ebffff47 	bl	58fc <__i2b>
    5bdc:	e3a03000 	mov	r3, #0
    5be0:	e5880048 	str	r0, [r8, #72]	; 0x48
    5be4:	e1a06000 	mov	r6, r0
    5be8:	e5803000 	str	r3, [r0]
    5bec:	eaffffd6 	b	5b4c <__pow5mult+0x48>
    5bf0:	00009ec0 	.word	0x00009ec0
    5bf4:	00000271 	.word	0x00000271

00005bf8 <__lshift>:
    5bf8:	e92d47f0 	push	{r4, r5, r6, r7, r8, r9, r10, lr}
    5bfc:	e591a010 	ldr	r10, [r1, #16]
    5c00:	e1a042c2 	asr	r4, r2, #5
    5c04:	e5913008 	ldr	r3, [r1, #8]
    5c08:	e084a00a 	add	r10, r4, r10
    5c0c:	e28a5001 	add	r5, r10, #1
    5c10:	e1550003 	cmp	r5, r3
    5c14:	e1a07001 	mov	r7, r1
    5c18:	e1a09002 	mov	r9, r2
    5c1c:	e1a08000 	mov	r8, r0
    5c20:	e5911004 	ldr	r1, [r1, #4]
    5c24:	da000003 	ble	5c38 <__lshift+0x40>
    5c28:	e1a03083 	lsl	r3, r3, #1
    5c2c:	e1550003 	cmp	r5, r3
    5c30:	e2811001 	add	r1, r1, #1
    5c34:	cafffffb 	bgt	5c28 <__lshift+0x30>
    5c38:	e1a00008 	mov	r0, r8
    5c3c:	ebfffe58 	bl	55a4 <_Balloc>
    5c40:	e3540000 	cmp	r4, #0
    5c44:	e280c014 	add	r12, r0, #20
    5c48:	da000007 	ble	5c6c <__lshift+0x74>
    5c4c:	e3a03000 	mov	r3, #0
    5c50:	e1a06003 	mov	r6, r3
    5c54:	e2833001 	add	r3, r3, #1
    5c58:	e1530004 	cmp	r3, r4
    5c5c:	e48c6004 	str	r6, [r12], #4
    5c60:	1afffffb 	bne	5c54 <__lshift+0x5c>
    5c64:	e0803103 	add	r3, r0, r3, lsl #2
    5c68:	e283c014 	add	r12, r3, #20
    5c6c:	e5972010 	ldr	r2, [r7, #16]
    5c70:	e219901f 	ands	r9, r9, #31
    5c74:	e0872102 	add	r2, r7, r2, lsl #2
    5c78:	e2874014 	add	r4, r7, #20
    5c7c:	e2822014 	add	r2, r2, #20
    5c80:	0a000014 	beq	5cd8 <__lshift+0xe0>
    5c84:	e2693020 	rsb	r3, r9, #32
    5c88:	e3a01000 	mov	r1, #0
    5c8c:	e5946000 	ldr	r6, [r4]
    5c90:	e1811916 	orr	r1, r1, r6, lsl r9
    5c94:	e48c1004 	str	r1, [r12], #4
    5c98:	e4941004 	ldr	r1, [r4], #4
    5c9c:	e1520004 	cmp	r2, r4
    5ca0:	e1a01331 	lsr	r1, r1, r3
    5ca4:	8afffff8 	bhi	5c8c <__lshift+0x94>
    5ca8:	e3510000 	cmp	r1, #0
    5cac:	e58c1000 	str	r1, [r12]
    5cb0:	128a5002 	addne	r5, r10, #2
    5cb4:	e598304c 	ldr	r3, [r8, #76]	; 0x4c
    5cb8:	e5972004 	ldr	r2, [r7, #4]
    5cbc:	e7931102 	ldr	r1, [r3, r2, lsl #2]
    5cc0:	e2455001 	sub	r5, r5, #1
    5cc4:	e5805010 	str	r5, [r0, #16]
    5cc8:	e5871000 	str	r1, [r7]
    5ccc:	e7837102 	str	r7, [r3, r2, lsl #2]
    5cd0:	e8bd47f0 	pop	{r4, r5, r6, r7, r8, r9, r10, lr}
    5cd4:	e12fff1e 	bx	lr
    5cd8:	e4943004 	ldr	r3, [r4], #4
    5cdc:	e1520004 	cmp	r2, r4
    5ce0:	e48c3004 	str	r3, [r12], #4
    5ce4:	9afffff2 	bls	5cb4 <__lshift+0xbc>
    5ce8:	e4943004 	ldr	r3, [r4], #4
    5cec:	e1520004 	cmp	r2, r4
    5cf0:	e48c3004 	str	r3, [r12], #4
    5cf4:	8afffff7 	bhi	5cd8 <__lshift+0xe0>
    5cf8:	eaffffed 	b	5cb4 <__lshift+0xbc>

00005cfc <__mcmp>:
    5cfc:	e52d4004 	push	{r4}		; (str r4, [sp, #-4]!)
    5d00:	e5913010 	ldr	r3, [r1, #16]
    5d04:	e1a04000 	mov	r4, r0
    5d08:	e5900010 	ldr	r0, [r0, #16]
    5d0c:	e0500003 	subs	r0, r0, r3
    5d10:	1a00000c 	bne	5d48 <__mcmp+0x4c>
    5d14:	e2833004 	add	r3, r3, #4
    5d18:	e1a02103 	lsl	r2, r3, #2
    5d1c:	e0843002 	add	r3, r4, r2
    5d20:	e0811002 	add	r1, r1, r2
    5d24:	e2844014 	add	r4, r4, #20
    5d28:	e2833004 	add	r3, r3, #4
    5d2c:	e2811004 	add	r1, r1, #4
    5d30:	e5332004 	ldr	r2, [r3, #-4]!
    5d34:	e531c004 	ldr	r12, [r1, #-4]!
    5d38:	e152000c 	cmp	r2, r12
    5d3c:	1a000003 	bne	5d50 <__mcmp+0x54>
    5d40:	e1540003 	cmp	r4, r3
    5d44:	3afffff9 	bcc	5d30 <__mcmp+0x34>
    5d48:	e8bd0010 	ldmfd	sp!, {r4}
    5d4c:	e12fff1e 	bx	lr
    5d50:	e15c0002 	cmp	r12, r2
    5d54:	93a00001 	movls	r0, #1
    5d58:	83e00000 	mvnhi	r0, #0
    5d5c:	eafffff9 	b	5d48 <__mcmp+0x4c>

00005d60 <__mdiff>:
    5d60:	e92d47f0 	push	{r4, r5, r6, r7, r8, r9, r10, lr}
    5d64:	e1a06001 	mov	r6, r1
    5d68:	e1a05000 	mov	r5, r0
    5d6c:	e1a01002 	mov	r1, r2
    5d70:	e1a00006 	mov	r0, r6
    5d74:	e1a04002 	mov	r4, r2
    5d78:	ebffffdf 	bl	5cfc <__mcmp>
    5d7c:	e2507000 	subs	r7, r0, #0
    5d80:	0a000042 	beq	5e90 <__mdiff+0x130>
    5d84:	b1a03006 	movlt	r3, r6
    5d88:	b1a06004 	movlt	r6, r4
    5d8c:	e5961004 	ldr	r1, [r6, #4]
    5d90:	e1a00005 	mov	r0, r5
    5d94:	b1a04003 	movlt	r4, r3
    5d98:	a3a09000 	movge	r9, #0
    5d9c:	b3a09001 	movlt	r9, #1
    5da0:	ebfffdff 	bl	55a4 <_Balloc>
    5da4:	e5967010 	ldr	r7, [r6, #16]
    5da8:	e594a010 	ldr	r10, [r4, #16]
    5dac:	e0868107 	add	r8, r6, r7, lsl #2
    5db0:	e084a10a 	add	r10, r4, r10, lsl #2
    5db4:	e580900c 	str	r9, [r0, #12]
    5db8:	e2888014 	add	r8, r8, #20
    5dbc:	e28aa014 	add	r10, r10, #20
    5dc0:	e2866014 	add	r6, r6, #20
    5dc4:	e2842014 	add	r2, r4, #20
    5dc8:	e2801014 	add	r1, r0, #20
    5dcc:	e3a05000 	mov	r5, #0
    5dd0:	e496c004 	ldr	r12, [r6], #4
    5dd4:	e4924004 	ldr	r4, [r2], #4
    5dd8:	e1a0380c 	lsl	r3, r12, #16
    5ddc:	e0855823 	add	r5, r5, r3, lsr #16
    5de0:	e1a09804 	lsl	r9, r4, #16
    5de4:	e0453829 	sub	r3, r5, r9, lsr #16
    5de8:	e1a05824 	lsr	r5, r4, #16
    5dec:	e065582c 	rsb	r5, r5, r12, lsr #16
    5df0:	e1a04803 	lsl	r4, r3, #16
    5df4:	e0855843 	add	r5, r5, r3, asr #16
    5df8:	e1a04824 	lsr	r4, r4, #16
    5dfc:	e1a03001 	mov	r3, r1
    5e00:	e1844805 	orr	r4, r4, r5, lsl #16
    5e04:	e4834004 	str	r4, [r3], #4
    5e08:	e15a0002 	cmp	r10, r2
    5e0c:	e1a0c006 	mov	r12, r6
    5e10:	e1a05845 	asr	r5, r5, #16
    5e14:	e1a01003 	mov	r1, r3
    5e18:	8affffec 	bhi	5dd0 <__mdiff+0x70>
    5e1c:	e1580006 	cmp	r8, r6
    5e20:	9a000010 	bls	5e68 <__mdiff+0x108>
    5e24:	e49c2004 	ldr	r2, [r12], #4
    5e28:	e1a04802 	lsl	r4, r2, #16
    5e2c:	e0855824 	add	r5, r5, r4, lsr #16
    5e30:	e1a04805 	lsl	r4, r5, #16
    5e34:	e1a02822 	lsr	r2, r2, #16
    5e38:	e0825845 	add	r5, r2, r5, asr #16
    5e3c:	e1a04824 	lsr	r4, r4, #16
    5e40:	e1844805 	orr	r4, r4, r5, lsl #16
    5e44:	e158000c 	cmp	r8, r12
    5e48:	e1a05845 	asr	r5, r5, #16
    5e4c:	e4834004 	str	r4, [r3], #4
    5e50:	8afffff3 	bhi	5e24 <__mdiff+0xc4>
    5e54:	e1e03006 	mvn	r3, r6
    5e58:	e0833008 	add	r3, r3, r8
    5e5c:	e3c33003 	bic	r3, r3, #3
    5e60:	e2833004 	add	r3, r3, #4
    5e64:	e0813003 	add	r3, r1, r3
    5e68:	e3540000 	cmp	r4, #0
    5e6c:	e2433004 	sub	r3, r3, #4
    5e70:	1a000003 	bne	5e84 <__mdiff+0x124>
    5e74:	e5332004 	ldr	r2, [r3, #-4]!
    5e78:	e3520000 	cmp	r2, #0
    5e7c:	e2477001 	sub	r7, r7, #1
    5e80:	0afffffb 	beq	5e74 <__mdiff+0x114>
    5e84:	e5807010 	str	r7, [r0, #16]
    5e88:	e8bd47f0 	pop	{r4, r5, r6, r7, r8, r9, r10, lr}
    5e8c:	e12fff1e 	bx	lr
    5e90:	e1a00005 	mov	r0, r5
    5e94:	e1a01007 	mov	r1, r7
    5e98:	ebfffdc1 	bl	55a4 <_Balloc>
    5e9c:	e3a03001 	mov	r3, #1
    5ea0:	e5803010 	str	r3, [r0, #16]
    5ea4:	e5807014 	str	r7, [r0, #20]
    5ea8:	eafffff6 	b	5e88 <__mdiff+0x128>

00005eac <__ulp>:
    5eac:	e59f3058 	ldr	r3, [pc, #88]	; 5f0c <__ulp+0x60>
    5eb0:	e0013003 	and	r3, r1, r3
    5eb4:	e243350d 	sub	r3, r3, #54525952	; 0x3400000
    5eb8:	e3530000 	cmp	r3, #0
    5ebc:	da000002 	ble	5ecc <__ulp+0x20>
    5ec0:	e1a01003 	mov	r1, r3
    5ec4:	e3a00000 	mov	r0, #0
    5ec8:	e12fff1e 	bx	lr
    5ecc:	e2633000 	rsb	r3, r3, #0
    5ed0:	e1a03a43 	asr	r3, r3, #20
    5ed4:	e3530013 	cmp	r3, #19
    5ed8:	da000007 	ble	5efc <__ulp+0x50>
    5edc:	e3530032 	cmp	r3, #50	; 0x32
    5ee0:	d2633033 	rsble	r3, r3, #51	; 0x33
    5ee4:	d3a02001 	movle	r2, #1
    5ee8:	d1a03312 	lslle	r3, r2, r3
    5eec:	c3a03001 	movgt	r3, #1
    5ef0:	e3a01000 	mov	r1, #0
    5ef4:	e1a00003 	mov	r0, r3
    5ef8:	e12fff1e 	bx	lr
    5efc:	e3a02702 	mov	r2, #524288	; 0x80000
    5f00:	e1a01352 	asr	r1, r2, r3
    5f04:	e3a00000 	mov	r0, #0
    5f08:	e12fff1e 	bx	lr
    5f0c:	7ff00000 	.word	0x7ff00000

00005f10 <__b2d>:
    5f10:	e92d41f0 	push	{r4, r5, r6, r7, r8, lr}
    5f14:	e5906010 	ldr	r6, [r0, #16]
    5f18:	e2866004 	add	r6, r6, #4
    5f1c:	e0806106 	add	r6, r0, r6, lsl #2
    5f20:	e1a04006 	mov	r4, r6
    5f24:	e4945004 	ldr	r5, [r4], #4
    5f28:	e1a03000 	mov	r3, r0
    5f2c:	e1a00005 	mov	r0, r5
    5f30:	e1a08001 	mov	r8, r1
    5f34:	e2837014 	add	r7, r3, #20
    5f38:	ebfffe36 	bl	5818 <__hi0bits>
    5f3c:	e2603020 	rsb	r3, r0, #32
    5f40:	e350000a 	cmp	r0, #10
    5f44:	e1a0c006 	mov	r12, r6
    5f48:	e5883000 	str	r3, [r8]
    5f4c:	ca00000d 	bgt	5f88 <__b2d+0x78>
    5f50:	e260100b 	rsb	r1, r0, #11
    5f54:	e1a0c135 	lsr	r12, r5, r1
    5f58:	e1570006 	cmp	r7, r6
    5f5c:	e38cc5ff 	orr	r12, r12, #1069547520	; 0x3fc00000
    5f60:	e38c3603 	orr	r3, r12, #3145728	; 0x300000
    5f64:	3514c008 	ldrcc	r12, [r4, #-8]
    5f68:	31a0113c 	lsrcc	r1, r12, r1
    5f6c:	23a01000 	movcs	r1, #0
    5f70:	e2800015 	add	r0, r0, #21
    5f74:	e1812015 	orr	r2, r1, r5, lsl r0
    5f78:	e1a00002 	mov	r0, r2
    5f7c:	e1a01003 	mov	r1, r3
    5f80:	e8bd41f0 	pop	{r4, r5, r6, r7, r8, lr}
    5f84:	e12fff1e 	bx	lr
    5f88:	e1570006 	cmp	r7, r6
    5f8c:	3246c004 	subcc	r12, r6, #4
    5f90:	35141008 	ldrcc	r1, [r4, #-8]
    5f94:	23a01000 	movcs	r1, #0
    5f98:	e250400b 	subs	r4, r0, #11
    5f9c:	0a00000a 	beq	5fcc <__b2d+0xbc>
    5fa0:	e1a05415 	lsl	r5, r5, r4
